ARM GAS  C:\Users\TYROLY~1\AppData\Local\Temp\cciuKSkM.s 			page 1


   1              		.syntax unified
   2              		.cpu cortex-m3
   3              		.fpu softvfp
   4              		.eabi_attribute 20, 1
   5              		.eabi_attribute 21, 1
   6              		.eabi_attribute 23, 3
   7              		.eabi_attribute 24, 1
   8              		.eabi_attribute 25, 1
   9              		.eabi_attribute 26, 1
  10              		.eabi_attribute 30, 1
  11              		.eabi_attribute 34, 1
  12              		.eabi_attribute 18, 4
  13              		.thumb
  14              		.syntax unified
  15              		.file	"main.c"
  16              		.text
  17              	.Ltext0:
  18              		.cfi_sections	.debug_frame
  19              		.section	.text.get_temperature,"ax",%progbits
  20              		.align	2
  21              		.global	get_temperature
  22              		.thumb
  23              		.thumb_func
  24              		.type	get_temperature, %function
  25              	get_temperature:
  26              	.LFB64:
  27              		.file 1 "main.c"
   1:main.c        **** /* ========================================
   2:main.c        ****  *
   3:main.c        ****  * Copyright YOUR COMPANY, THE YEAR
   4:main.c        ****  * All Rights Reserved
   5:main.c        ****  * UNPUBLISHED, LICENSED SOFTWARE.
   6:main.c        ****  *
   7:main.c        ****  * CONFIDENTIAL AND PROPRIETARY INFORMATION
   8:main.c        ****  * WHICH IS THE PROPERTY OF your company.
   9:main.c        ****  *
  10:main.c        ****  * ========================================
  11:main.c        **** */
  12:main.c        **** 
  13:main.c        **** #include <stdint.h>
  14:main.c        **** #include <stdio.h>
  15:main.c        **** 
  16:main.c        **** #include "project.h"
  17:main.c        **** 
  18:main.c        **** uint16_t get_temperature(){
  28              		.loc 1 18 0
  29              		.cfi_startproc
  30              		@ args = 0, pretend = 0, frame = 0
  31              		@ frame_needed = 0, uses_anonymous_args = 0
  32 0000 38B5     		push	{r3, r4, r5, lr}
  33              		.cfi_def_cfa_offset 16
  34              		.cfi_offset 3, -16
  35              		.cfi_offset 4, -12
  36              		.cfi_offset 5, -8
  37              		.cfi_offset 14, -4
  19:main.c        ****     static char buf [100];
  20:main.c        ****     
ARM GAS  C:\Users\TYROLY~1\AppData\Local\Temp\cciuKSkM.s 			page 2


  21:main.c        ****     UART_PutString("Start of conversion\r\n");
  38              		.loc 1 21 0
  39 0002 2648     		ldr	r0, .L9
  40 0004 FFF7FEFF 		bl	UART_PutString
  41              	.LVL0:
  22:main.c        ****     uint8_t read = I2C_MasterSendStart(0x77, 0);
  42              		.loc 1 22 0
  43 0008 0021     		movs	r1, #0
  44 000a 7720     		movs	r0, #119
  45 000c FFF7FEFF 		bl	I2C_MasterSendStart
  46              	.LVL1:
  23:main.c        **** 
  24:main.c        ****     if(read != I2C_MSTR_NO_ERROR){
  47              		.loc 1 24 0
  48 0010 28B1     		cbz	r0, .L2
  25:main.c        ****         I2C_MasterSendStop();
  49              		.loc 1 25 0
  50 0012 FFF7FEFF 		bl	I2C_MasterSendStop
  51              	.LVL2:
  26:main.c        ****         UART_PutString("Failed to address SLAVE\r\n");
  52              		.loc 1 26 0
  53 0016 2248     		ldr	r0, .L9+4
  54 0018 FFF7FEFF 		bl	UART_PutString
  55              	.LVL3:
  27:main.c        ****         return 0;
  56              		.loc 1 27 0
  57 001c 3CE0     		b	.L3
  58              	.LVL4:
  59              	.L2:
  60              	.LBB2:
  28:main.c        ****     }else{
  29:main.c        ****         
  30:main.c        ****         read = I2C_MasterWriteByte(0xD0);
  61              		.loc 1 30 0
  62 001e D020     		movs	r0, #208
  63              	.LVL5:
  64 0020 FFF7FEFF 		bl	I2C_MasterWriteByte
  65              	.LVL6:
  31:main.c        ****         if(read != I2C_MSTR_NO_ERROR){
  66              		.loc 1 31 0
  67 0024 0446     		mov	r4, r0
  68 0026 60B1     		cbz	r0, .L4
  32:main.c        ****             I2C_MasterSendStop();
  69              		.loc 1 32 0
  70 0028 FFF7FEFF 		bl	I2C_MasterSendStop
  71              	.LVL7:
  33:main.c        ****             snprintf(buf, sizeof(buf), "FAIL RECV: %u \r\n", read);
  72              		.loc 1 33 0
  73 002c 1D4D     		ldr	r5, .L9+8
  74 002e 2346     		mov	r3, r4
  75 0030 1D4A     		ldr	r2, .L9+12
  76 0032 6421     		movs	r1, #100
  77 0034 2846     		mov	r0, r5
  78 0036 FFF7FEFF 		bl	snprintf
  79              	.LVL8:
  34:main.c        ****             UART_PutString(buf);
  80              		.loc 1 34 0
ARM GAS  C:\Users\TYROLY~1\AppData\Local\Temp\cciuKSkM.s 			page 3


  81 003a 2846     		mov	r0, r5
  82 003c FFF7FEFF 		bl	UART_PutString
  83              	.LVL9:
  35:main.c        ****             return 0;
  84              		.loc 1 35 0
  85 0040 2AE0     		b	.L3
  86              	.LVL10:
  87              	.L4:
  36:main.c        ****         }
  37:main.c        ****         read = I2C_MasterSendRestart(0x77, 1);
  88              		.loc 1 37 0
  89 0042 0121     		movs	r1, #1
  90 0044 7720     		movs	r0, #119
  91              	.LVL11:
  92 0046 FFF7FEFF 		bl	I2C_MasterSendRestart
  93              	.LVL12:
  38:main.c        ****         if(read != I2C_MSTR_NO_ERROR){
  94              		.loc 1 38 0
  95 004a 0446     		mov	r4, r0
  96 004c 60B1     		cbz	r0, .L5
  39:main.c        ****             I2C_MasterSendStop();
  97              		.loc 1 39 0
  98 004e FFF7FEFF 		bl	I2C_MasterSendStop
  99              	.LVL13:
  40:main.c        ****             snprintf(buf, sizeof(buf), "FAIL RECV rest: %u \r\n", read);
 100              		.loc 1 40 0
 101 0052 144D     		ldr	r5, .L9+8
 102 0054 2346     		mov	r3, r4
 103 0056 154A     		ldr	r2, .L9+16
 104 0058 6421     		movs	r1, #100
 105 005a 2846     		mov	r0, r5
 106 005c FFF7FEFF 		bl	snprintf
 107              	.LVL14:
  41:main.c        ****             UART_PutString(buf);
 108              		.loc 1 41 0
 109 0060 2846     		mov	r0, r5
 110 0062 FFF7FEFF 		bl	UART_PutString
 111              	.LVL15:
  42:main.c        ****             return 0;
 112              		.loc 1 42 0
 113 0066 17E0     		b	.L3
 114              	.LVL16:
 115              	.L5:
  43:main.c        ****         }
  44:main.c        ****         uint8_t data = I2C_MasterReadByte(I2C_ACK_DATA);
 116              		.loc 1 44 0
 117 0068 0120     		movs	r0, #1
 118              	.LVL17:
 119 006a FFF7FEFF 		bl	I2C_MasterReadByte
 120              	.LVL18:
 121 006e 0546     		mov	r5, r0
 122              	.LVL19:
  45:main.c        ****         I2C_MasterSendStop();
 123              		.loc 1 45 0
 124 0070 FFF7FEFF 		bl	I2C_MasterSendStop
 125              	.LVL20:
  46:main.c        ****         if(read == I2C_MSTR_NO_ERROR){
ARM GAS  C:\Users\TYROLY~1\AppData\Local\Temp\cciuKSkM.s 			page 4


 126              		.loc 1 46 0
 127 0074 1CB9     		cbnz	r4, .L6
  47:main.c        ****             UART_PutString("Successfully addressed SLAVE\r\n");
 128              		.loc 1 47 0
 129 0076 0E48     		ldr	r0, .L9+20
 130 0078 FFF7FEFF 		bl	UART_PutString
 131              	.LVL21:
 132 007c 02E0     		b	.L7
 133              	.L6:
  48:main.c        ****         }else{
  49:main.c        ****             UART_PutString("NOT sucessfully addressed SLAVE\r\n");
 134              		.loc 1 49 0
 135 007e 0D48     		ldr	r0, .L9+24
 136 0080 FFF7FEFF 		bl	UART_PutString
 137              	.LVL22:
 138              	.L7:
  50:main.c        ****         }
  51:main.c        ****         
  52:main.c        ****         snprintf(buf, sizeof(buf), "RECV: %u \r\n", data);
 139              		.loc 1 52 0
 140 0084 074C     		ldr	r4, .L9+8
 141 0086 2B46     		mov	r3, r5
 142 0088 0B4A     		ldr	r2, .L9+28
 143 008a 6421     		movs	r1, #100
 144 008c 2046     		mov	r0, r4
 145 008e FFF7FEFF 		bl	snprintf
 146              	.LVL23:
  53:main.c        ****         UART_PutString(buf);
 147              		.loc 1 53 0
 148 0092 2046     		mov	r0, r4
 149 0094 FFF7FEFF 		bl	UART_PutString
 150              	.LVL24:
 151              	.L3:
 152              	.LBE2:
  54:main.c        ****     }
  55:main.c        ****      return 0;
  56:main.c        **** }
 153              		.loc 1 56 0
 154 0098 0020     		movs	r0, #0
 155 009a 38BD     		pop	{r3, r4, r5, pc}
 156              	.L10:
 157              		.align	2
 158              	.L9:
 159 009c 00000000 		.word	.LC0
 160 00a0 18000000 		.word	.LC1
 161 00a4 00000000 		.word	.LANCHOR0
 162 00a8 34000000 		.word	.LC2
 163 00ac 48000000 		.word	.LC3
 164 00b0 60000000 		.word	.LC4
 165 00b4 80000000 		.word	.LC5
 166 00b8 A4000000 		.word	.LC6
 167              		.cfi_endproc
 168              	.LFE64:
 169              		.size	get_temperature, .-get_temperature
 170              		.section	.text.main,"ax",%progbits
 171              		.align	2
 172              		.global	main
ARM GAS  C:\Users\TYROLY~1\AppData\Local\Temp\cciuKSkM.s 			page 5


 173              		.thumb
 174              		.thumb_func
 175              		.type	main, %function
 176              	main:
 177              	.LFB65:
  57:main.c        **** 
  58:main.c        **** int main(void)
  59:main.c        **** {
 178              		.loc 1 59 0
 179              		.cfi_startproc
 180              		@ Volatile: function does not return.
 181              		@ args = 0, pretend = 0, frame = 0
 182              		@ frame_needed = 0, uses_anonymous_args = 0
 183 0000 08B5     		push	{r3, lr}
 184              		.cfi_def_cfa_offset 8
 185              		.cfi_offset 3, -8
 186              		.cfi_offset 14, -4
  60:main.c        ****     CyGlobalIntEnable; /* Enable global interrupts. */
 187              		.loc 1 60 0
 188              		.syntax unified
 189              	@ 60 "main.c" 1
 190 0002 62B6     		CPSIE   i
 191              	@ 0 "" 2
  61:main.c        **** 
  62:main.c        ****     I2C_Start();
 192              		.loc 1 62 0
 193              		.thumb
 194              		.syntax unified
 195 0004 FFF7FEFF 		bl	I2C_Start
 196              	.LVL25:
  63:main.c        ****     UART_Start();
 197              		.loc 1 63 0
 198 0008 FFF7FEFF 		bl	UART_Start
 199              	.LVL26:
  64:main.c        ****     UART_PutString("INIT\r\n");
 200              		.loc 1 64 0
 201 000c 0248     		ldr	r0, .L14
 202 000e FFF7FEFF 		bl	UART_PutString
 203              	.LVL27:
 204              	.L12:
  65:main.c        ****     
  66:main.c        ****     
  67:main.c        ****     for(;;){
  68:main.c        ****         get_temperature();
 205              		.loc 1 68 0 discriminator 1
 206 0012 FFF7FEFF 		bl	get_temperature
 207              	.LVL28:
 208 0016 FCE7     		b	.L12
 209              	.L15:
 210              		.align	2
 211              	.L14:
 212 0018 B0000000 		.word	.LC7
 213              		.cfi_endproc
 214              	.LFE65:
 215              		.size	main, .-main
 216              		.section	.rodata.str1.4,"aMS",%progbits,1
 217              		.align	2
ARM GAS  C:\Users\TYROLY~1\AppData\Local\Temp\cciuKSkM.s 			page 6


 218              	.LC0:
 219 0000 53746172 		.ascii	"Start of conversion\015\012\000"
 219      74206F66 
 219      20636F6E 
 219      76657273 
 219      696F6E0D 
 220 0016 0000     		.space	2
 221              	.LC1:
 222 0018 4661696C 		.ascii	"Failed to address SLAVE\015\012\000"
 222      65642074 
 222      6F206164 
 222      64726573 
 222      7320534C 
 223 0032 0000     		.space	2
 224              	.LC2:
 225 0034 4641494C 		.ascii	"FAIL RECV: %u \015\012\000"
 225      20524543 
 225      563A2025 
 225      75200D0A 
 225      00
 226 0045 000000   		.space	3
 227              	.LC3:
 228 0048 4641494C 		.ascii	"FAIL RECV rest: %u \015\012\000"
 228      20524543 
 228      56207265 
 228      73743A20 
 228      2575200D 
 229 005e 0000     		.space	2
 230              	.LC4:
 231 0060 53756363 		.ascii	"Successfully addressed SLAVE\015\012\000"
 231      65737366 
 231      756C6C79 
 231      20616464 
 231      72657373 
 232 007f 00       		.space	1
 233              	.LC5:
 234 0080 4E4F5420 		.ascii	"NOT sucessfully addressed SLAVE\015\012\000"
 234      73756365 
 234      73736675 
 234      6C6C7920 
 234      61646472 
 235 00a2 0000     		.space	2
 236              	.LC6:
 237 00a4 52454356 		.ascii	"RECV: %u \015\012\000"
 237      3A202575 
 237      200D0A00 
 238              	.LC7:
 239 00b0 494E4954 		.ascii	"INIT\015\012\000"
 239      0D0A00
 240              		.bss
 241              		.align	2
 242              		.set	.LANCHOR0,. + 0
 243              		.type	buf.6456, %object
 244              		.size	buf.6456, 100
 245              	buf.6456:
 246 0000 00000000 		.space	100
 246      00000000 
ARM GAS  C:\Users\TYROLY~1\AppData\Local\Temp\cciuKSkM.s 			page 7


 246      00000000 
 246      00000000 
 246      00000000 
 247              		.text
 248              	.Letext0:
 249              		.file 2 "c:\\program files (x86)\\cypress\\psoc creator\\4.2\\psoc creator\\import\\gnu\\arm\\5.4.
 250              		.file 3 "c:\\program files (x86)\\cypress\\psoc creator\\4.2\\psoc creator\\import\\gnu\\arm\\5.4.
 251              		.file 4 "Generated_Source\\PSoC5/I2C.h"
 252              		.file 5 "c:\\program files (x86)\\cypress\\psoc creator\\4.2\\psoc creator\\import\\gnu\\arm\\5.4.
 253              		.file 6 "Generated_Source\\PSoC5/UART.h"
 254              		.file 7 "Generated_Source\\PSoC5/core_cm3.h"