ARM GAS  C:\Users\TYROLY~1\AppData\Local\Temp\ccUPDJmc.s 			page 1


   1              		.syntax unified
   2              		.cpu cortex-m3
   3              		.fpu softvfp
   4              		.eabi_attribute 20, 1
   5              		.eabi_attribute 21, 1
   6              		.eabi_attribute 23, 3
   7              		.eabi_attribute 24, 1
   8              		.eabi_attribute 25, 1
   9              		.eabi_attribute 26, 1
  10              		.eabi_attribute 30, 1
  11              		.eabi_attribute 34, 1
  12              		.eabi_attribute 18, 4
  13              		.thumb
  14              		.syntax unified
  15              		.file	"ISR_1m.c"
  16              		.text
  17              	.Ltext0:
  18              		.cfi_sections	.debug_frame
  19              		.section	.text.ISR_1m_Interrupt,"ax",%progbits
  20              		.align	2
  21              		.global	ISR_1m_Interrupt
  22              		.thumb
  23              		.thumb_func
  24              		.type	ISR_1m_Interrupt, %function
  25              	ISR_1m_Interrupt:
  26              	.LFB3:
  27              		.file 1 "Generated_Source\\PSoC5\\ISR_1m.c"
   1:Generated_Source\PSoC5/ISR_1m.c **** /*******************************************************************************
   2:Generated_Source\PSoC5/ISR_1m.c **** * File Name: ISR_1m.c  
   3:Generated_Source\PSoC5/ISR_1m.c **** * Version 1.70
   4:Generated_Source\PSoC5/ISR_1m.c **** *
   5:Generated_Source\PSoC5/ISR_1m.c **** *  Description:
   6:Generated_Source\PSoC5/ISR_1m.c **** *   API for controlling the state of an interrupt.
   7:Generated_Source\PSoC5/ISR_1m.c **** *
   8:Generated_Source\PSoC5/ISR_1m.c **** *
   9:Generated_Source\PSoC5/ISR_1m.c **** *  Note:
  10:Generated_Source\PSoC5/ISR_1m.c **** *
  11:Generated_Source\PSoC5/ISR_1m.c **** ********************************************************************************
  12:Generated_Source\PSoC5/ISR_1m.c **** * Copyright 2008-2015, Cypress Semiconductor Corporation.  All rights reserved.
  13:Generated_Source\PSoC5/ISR_1m.c **** * You may use this file only in accordance with the license, terms, conditions, 
  14:Generated_Source\PSoC5/ISR_1m.c **** * disclaimers, and limitations in the end user license agreement accompanying 
  15:Generated_Source\PSoC5/ISR_1m.c **** * the software package with which this file was provided.
  16:Generated_Source\PSoC5/ISR_1m.c **** *******************************************************************************/
  17:Generated_Source\PSoC5/ISR_1m.c **** 
  18:Generated_Source\PSoC5/ISR_1m.c **** 
  19:Generated_Source\PSoC5/ISR_1m.c **** #include <cydevice_trm.h>
  20:Generated_Source\PSoC5/ISR_1m.c **** #include <CyLib.h>
  21:Generated_Source\PSoC5/ISR_1m.c **** #include <ISR_1m.h>
  22:Generated_Source\PSoC5/ISR_1m.c **** #include "cyapicallbacks.h"
  23:Generated_Source\PSoC5/ISR_1m.c **** 
  24:Generated_Source\PSoC5/ISR_1m.c **** #if !defined(ISR_1m__REMOVED) /* Check for removal by optimization */
  25:Generated_Source\PSoC5/ISR_1m.c **** 
  26:Generated_Source\PSoC5/ISR_1m.c **** /*******************************************************************************
  27:Generated_Source\PSoC5/ISR_1m.c **** *  Place your includes, defines and code here 
  28:Generated_Source\PSoC5/ISR_1m.c **** ********************************************************************************/
  29:Generated_Source\PSoC5/ISR_1m.c **** /* `#START ISR_1m_intc` */
  30:Generated_Source\PSoC5/ISR_1m.c **** 
ARM GAS  C:\Users\TYROLY~1\AppData\Local\Temp\ccUPDJmc.s 			page 2


  31:Generated_Source\PSoC5/ISR_1m.c **** /* `#END` */
  32:Generated_Source\PSoC5/ISR_1m.c **** 
  33:Generated_Source\PSoC5/ISR_1m.c **** #ifndef CYINT_IRQ_BASE
  34:Generated_Source\PSoC5/ISR_1m.c **** #define CYINT_IRQ_BASE      16
  35:Generated_Source\PSoC5/ISR_1m.c **** #endif /* CYINT_IRQ_BASE */
  36:Generated_Source\PSoC5/ISR_1m.c **** #ifndef CYINT_VECT_TABLE
  37:Generated_Source\PSoC5/ISR_1m.c **** #define CYINT_VECT_TABLE    ((cyisraddress **) CYREG_NVIC_VECT_OFFSET)
  38:Generated_Source\PSoC5/ISR_1m.c **** #endif /* CYINT_VECT_TABLE */
  39:Generated_Source\PSoC5/ISR_1m.c **** 
  40:Generated_Source\PSoC5/ISR_1m.c **** /* Declared in startup, used to set unused interrupts to. */
  41:Generated_Source\PSoC5/ISR_1m.c **** CY_ISR_PROTO(IntDefaultHandler);
  42:Generated_Source\PSoC5/ISR_1m.c **** 
  43:Generated_Source\PSoC5/ISR_1m.c **** 
  44:Generated_Source\PSoC5/ISR_1m.c **** /*******************************************************************************
  45:Generated_Source\PSoC5/ISR_1m.c **** * Function Name: ISR_1m_Start
  46:Generated_Source\PSoC5/ISR_1m.c **** ********************************************************************************
  47:Generated_Source\PSoC5/ISR_1m.c **** *
  48:Generated_Source\PSoC5/ISR_1m.c **** * Summary:
  49:Generated_Source\PSoC5/ISR_1m.c **** *  Set up the interrupt and enable it. This function disables the interrupt, 
  50:Generated_Source\PSoC5/ISR_1m.c **** *  sets the default interrupt vector, sets the priority from the value in the
  51:Generated_Source\PSoC5/ISR_1m.c **** *  Design Wide Resources Interrupt Editor, then enables the interrupt to the 
  52:Generated_Source\PSoC5/ISR_1m.c **** *  interrupt controller.
  53:Generated_Source\PSoC5/ISR_1m.c **** *
  54:Generated_Source\PSoC5/ISR_1m.c **** * Parameters:  
  55:Generated_Source\PSoC5/ISR_1m.c **** *   None
  56:Generated_Source\PSoC5/ISR_1m.c **** *
  57:Generated_Source\PSoC5/ISR_1m.c **** * Return:
  58:Generated_Source\PSoC5/ISR_1m.c **** *   None
  59:Generated_Source\PSoC5/ISR_1m.c **** *
  60:Generated_Source\PSoC5/ISR_1m.c **** *******************************************************************************/
  61:Generated_Source\PSoC5/ISR_1m.c **** void ISR_1m_Start(void)
  62:Generated_Source\PSoC5/ISR_1m.c **** {
  63:Generated_Source\PSoC5/ISR_1m.c ****     /* For all we know the interrupt is active. */
  64:Generated_Source\PSoC5/ISR_1m.c ****     ISR_1m_Disable();
  65:Generated_Source\PSoC5/ISR_1m.c **** 
  66:Generated_Source\PSoC5/ISR_1m.c ****     /* Set the ISR to point to the ISR_1m Interrupt. */
  67:Generated_Source\PSoC5/ISR_1m.c ****     ISR_1m_SetVector(&ISR_1m_Interrupt);
  68:Generated_Source\PSoC5/ISR_1m.c **** 
  69:Generated_Source\PSoC5/ISR_1m.c ****     /* Set the priority. */
  70:Generated_Source\PSoC5/ISR_1m.c ****     ISR_1m_SetPriority((uint8)ISR_1m_INTC_PRIOR_NUMBER);
  71:Generated_Source\PSoC5/ISR_1m.c **** 
  72:Generated_Source\PSoC5/ISR_1m.c ****     /* Enable it. */
  73:Generated_Source\PSoC5/ISR_1m.c ****     ISR_1m_Enable();
  74:Generated_Source\PSoC5/ISR_1m.c **** }
  75:Generated_Source\PSoC5/ISR_1m.c **** 
  76:Generated_Source\PSoC5/ISR_1m.c **** 
  77:Generated_Source\PSoC5/ISR_1m.c **** /*******************************************************************************
  78:Generated_Source\PSoC5/ISR_1m.c **** * Function Name: ISR_1m_StartEx
  79:Generated_Source\PSoC5/ISR_1m.c **** ********************************************************************************
  80:Generated_Source\PSoC5/ISR_1m.c **** *
  81:Generated_Source\PSoC5/ISR_1m.c **** * Summary:
  82:Generated_Source\PSoC5/ISR_1m.c **** *  Sets up the interrupt and enables it. This function disables the interrupt,
  83:Generated_Source\PSoC5/ISR_1m.c **** *  sets the interrupt vector based on the address passed in, sets the priority 
  84:Generated_Source\PSoC5/ISR_1m.c **** *  from the value in the Design Wide Resources Interrupt Editor, then enables 
  85:Generated_Source\PSoC5/ISR_1m.c **** *  the interrupt to the interrupt controller.
  86:Generated_Source\PSoC5/ISR_1m.c **** *  
  87:Generated_Source\PSoC5/ISR_1m.c **** *  When defining ISR functions, the CY_ISR and CY_ISR_PROTO macros should be 
ARM GAS  C:\Users\TYROLY~1\AppData\Local\Temp\ccUPDJmc.s 			page 3


  88:Generated_Source\PSoC5/ISR_1m.c **** *  used to provide consistent definition across compilers:
  89:Generated_Source\PSoC5/ISR_1m.c **** *  
  90:Generated_Source\PSoC5/ISR_1m.c **** *  Function definition example:
  91:Generated_Source\PSoC5/ISR_1m.c **** *   CY_ISR(MyISR)
  92:Generated_Source\PSoC5/ISR_1m.c **** *   {
  93:Generated_Source\PSoC5/ISR_1m.c **** *   }
  94:Generated_Source\PSoC5/ISR_1m.c **** *   Function prototype example:
  95:Generated_Source\PSoC5/ISR_1m.c **** *   CY_ISR_PROTO(MyISR);
  96:Generated_Source\PSoC5/ISR_1m.c **** *
  97:Generated_Source\PSoC5/ISR_1m.c **** * Parameters:  
  98:Generated_Source\PSoC5/ISR_1m.c **** *   address: Address of the ISR to set in the interrupt vector table.
  99:Generated_Source\PSoC5/ISR_1m.c **** *
 100:Generated_Source\PSoC5/ISR_1m.c **** * Return:
 101:Generated_Source\PSoC5/ISR_1m.c **** *   None
 102:Generated_Source\PSoC5/ISR_1m.c **** *
 103:Generated_Source\PSoC5/ISR_1m.c **** *******************************************************************************/
 104:Generated_Source\PSoC5/ISR_1m.c **** void ISR_1m_StartEx(cyisraddress address)
 105:Generated_Source\PSoC5/ISR_1m.c **** {
 106:Generated_Source\PSoC5/ISR_1m.c ****     /* For all we know the interrupt is active. */
 107:Generated_Source\PSoC5/ISR_1m.c ****     ISR_1m_Disable();
 108:Generated_Source\PSoC5/ISR_1m.c **** 
 109:Generated_Source\PSoC5/ISR_1m.c ****     /* Set the ISR to point to the ISR_1m Interrupt. */
 110:Generated_Source\PSoC5/ISR_1m.c ****     ISR_1m_SetVector(address);
 111:Generated_Source\PSoC5/ISR_1m.c **** 
 112:Generated_Source\PSoC5/ISR_1m.c ****     /* Set the priority. */
 113:Generated_Source\PSoC5/ISR_1m.c ****     ISR_1m_SetPriority((uint8)ISR_1m_INTC_PRIOR_NUMBER);
 114:Generated_Source\PSoC5/ISR_1m.c **** 
 115:Generated_Source\PSoC5/ISR_1m.c ****     /* Enable it. */
 116:Generated_Source\PSoC5/ISR_1m.c ****     ISR_1m_Enable();
 117:Generated_Source\PSoC5/ISR_1m.c **** }
 118:Generated_Source\PSoC5/ISR_1m.c **** 
 119:Generated_Source\PSoC5/ISR_1m.c **** 
 120:Generated_Source\PSoC5/ISR_1m.c **** /*******************************************************************************
 121:Generated_Source\PSoC5/ISR_1m.c **** * Function Name: ISR_1m_Stop
 122:Generated_Source\PSoC5/ISR_1m.c **** ********************************************************************************
 123:Generated_Source\PSoC5/ISR_1m.c **** *
 124:Generated_Source\PSoC5/ISR_1m.c **** * Summary:
 125:Generated_Source\PSoC5/ISR_1m.c **** *   Disables and removes the interrupt.
 126:Generated_Source\PSoC5/ISR_1m.c **** *
 127:Generated_Source\PSoC5/ISR_1m.c **** * Parameters:  
 128:Generated_Source\PSoC5/ISR_1m.c **** *   None
 129:Generated_Source\PSoC5/ISR_1m.c **** *
 130:Generated_Source\PSoC5/ISR_1m.c **** * Return:
 131:Generated_Source\PSoC5/ISR_1m.c **** *   None
 132:Generated_Source\PSoC5/ISR_1m.c **** *
 133:Generated_Source\PSoC5/ISR_1m.c **** *******************************************************************************/
 134:Generated_Source\PSoC5/ISR_1m.c **** void ISR_1m_Stop(void)
 135:Generated_Source\PSoC5/ISR_1m.c **** {
 136:Generated_Source\PSoC5/ISR_1m.c ****     /* Disable this interrupt. */
 137:Generated_Source\PSoC5/ISR_1m.c ****     ISR_1m_Disable();
 138:Generated_Source\PSoC5/ISR_1m.c **** 
 139:Generated_Source\PSoC5/ISR_1m.c ****     /* Set the ISR to point to the passive one. */
 140:Generated_Source\PSoC5/ISR_1m.c ****     ISR_1m_SetVector(&IntDefaultHandler);
 141:Generated_Source\PSoC5/ISR_1m.c **** }
 142:Generated_Source\PSoC5/ISR_1m.c **** 
 143:Generated_Source\PSoC5/ISR_1m.c **** 
 144:Generated_Source\PSoC5/ISR_1m.c **** /*******************************************************************************
ARM GAS  C:\Users\TYROLY~1\AppData\Local\Temp\ccUPDJmc.s 			page 4


 145:Generated_Source\PSoC5/ISR_1m.c **** * Function Name: ISR_1m_Interrupt
 146:Generated_Source\PSoC5/ISR_1m.c **** ********************************************************************************
 147:Generated_Source\PSoC5/ISR_1m.c **** *
 148:Generated_Source\PSoC5/ISR_1m.c **** * Summary:
 149:Generated_Source\PSoC5/ISR_1m.c **** *   The default Interrupt Service Routine for ISR_1m.
 150:Generated_Source\PSoC5/ISR_1m.c **** *
 151:Generated_Source\PSoC5/ISR_1m.c **** *   Add custom code between the coments to keep the next version of this file
 152:Generated_Source\PSoC5/ISR_1m.c **** *   from over writting your code.
 153:Generated_Source\PSoC5/ISR_1m.c **** *
 154:Generated_Source\PSoC5/ISR_1m.c **** * Parameters:  
 155:Generated_Source\PSoC5/ISR_1m.c **** *
 156:Generated_Source\PSoC5/ISR_1m.c **** * Return:
 157:Generated_Source\PSoC5/ISR_1m.c **** *   None
 158:Generated_Source\PSoC5/ISR_1m.c **** *
 159:Generated_Source\PSoC5/ISR_1m.c **** *******************************************************************************/
 160:Generated_Source\PSoC5/ISR_1m.c **** CY_ISR(ISR_1m_Interrupt)
 161:Generated_Source\PSoC5/ISR_1m.c **** {
  28              		.loc 1 161 0
  29              		.cfi_startproc
  30              		@ args = 0, pretend = 0, frame = 0
  31              		@ frame_needed = 0, uses_anonymous_args = 0
  32 0000 08B5     		push	{r3, lr}
  33              		.cfi_def_cfa_offset 8
  34              		.cfi_offset 3, -8
  35              		.cfi_offset 14, -4
 162:Generated_Source\PSoC5/ISR_1m.c ****     #ifdef ISR_1m_INTERRUPT_INTERRUPT_CALLBACK
 163:Generated_Source\PSoC5/ISR_1m.c ****         ISR_1m_Interrupt_InterruptCallback();
 164:Generated_Source\PSoC5/ISR_1m.c ****     #endif /* ISR_1m_INTERRUPT_INTERRUPT_CALLBACK */ 
 165:Generated_Source\PSoC5/ISR_1m.c **** 
 166:Generated_Source\PSoC5/ISR_1m.c ****     /*  Place your Interrupt code here. */
 167:Generated_Source\PSoC5/ISR_1m.c ****     /* `#START ISR_1m_Interrupt` */
 168:Generated_Source\PSoC5/ISR_1m.c **** 
 169:Generated_Source\PSoC5/ISR_1m.c **** #include "isrs.h"
 170:Generated_Source\PSoC5/ISR_1m.c ****     isr_timer();
  36              		.loc 1 170 0
  37 0002 FFF7FEFF 		bl	isr_timer
  38              	.LVL0:
  39 0006 08BD     		pop	{r3, pc}
  40              		.cfi_endproc
  41              	.LFE3:
  42              		.size	ISR_1m_Interrupt, .-ISR_1m_Interrupt
  43              		.section	.text.ISR_1m_SetVector,"ax",%progbits
  44              		.align	2
  45              		.global	ISR_1m_SetVector
  46              		.thumb
  47              		.thumb_func
  48              		.type	ISR_1m_SetVector, %function
  49              	ISR_1m_SetVector:
  50              	.LFB4:
 171:Generated_Source\PSoC5/ISR_1m.c ****     /* `#END` */
 172:Generated_Source\PSoC5/ISR_1m.c **** }
 173:Generated_Source\PSoC5/ISR_1m.c **** 
 174:Generated_Source\PSoC5/ISR_1m.c **** 
 175:Generated_Source\PSoC5/ISR_1m.c **** /*******************************************************************************
 176:Generated_Source\PSoC5/ISR_1m.c **** * Function Name: ISR_1m_SetVector
 177:Generated_Source\PSoC5/ISR_1m.c **** ********************************************************************************
 178:Generated_Source\PSoC5/ISR_1m.c **** *
ARM GAS  C:\Users\TYROLY~1\AppData\Local\Temp\ccUPDJmc.s 			page 5


 179:Generated_Source\PSoC5/ISR_1m.c **** * Summary:
 180:Generated_Source\PSoC5/ISR_1m.c **** *   Change the ISR vector for the Interrupt. Note calling ISR_1m_Start
 181:Generated_Source\PSoC5/ISR_1m.c **** *   will override any effect this method would have had. To set the vector 
 182:Generated_Source\PSoC5/ISR_1m.c **** *   before the component has been started use ISR_1m_StartEx instead.
 183:Generated_Source\PSoC5/ISR_1m.c **** * 
 184:Generated_Source\PSoC5/ISR_1m.c **** *   When defining ISR functions, the CY_ISR and CY_ISR_PROTO macros should be 
 185:Generated_Source\PSoC5/ISR_1m.c **** *   used to provide consistent definition across compilers:
 186:Generated_Source\PSoC5/ISR_1m.c **** *
 187:Generated_Source\PSoC5/ISR_1m.c **** *   Function definition example:
 188:Generated_Source\PSoC5/ISR_1m.c **** *   CY_ISR(MyISR)
 189:Generated_Source\PSoC5/ISR_1m.c **** *   {
 190:Generated_Source\PSoC5/ISR_1m.c **** *   }
 191:Generated_Source\PSoC5/ISR_1m.c **** *
 192:Generated_Source\PSoC5/ISR_1m.c **** *   Function prototype example:
 193:Generated_Source\PSoC5/ISR_1m.c **** *     CY_ISR_PROTO(MyISR);
 194:Generated_Source\PSoC5/ISR_1m.c **** *
 195:Generated_Source\PSoC5/ISR_1m.c **** * Parameters:
 196:Generated_Source\PSoC5/ISR_1m.c **** *   address: Address of the ISR to set in the interrupt vector table.
 197:Generated_Source\PSoC5/ISR_1m.c **** *
 198:Generated_Source\PSoC5/ISR_1m.c **** * Return:
 199:Generated_Source\PSoC5/ISR_1m.c **** *   None
 200:Generated_Source\PSoC5/ISR_1m.c **** *
 201:Generated_Source\PSoC5/ISR_1m.c **** *******************************************************************************/
 202:Generated_Source\PSoC5/ISR_1m.c **** void ISR_1m_SetVector(cyisraddress address)
 203:Generated_Source\PSoC5/ISR_1m.c **** {
  51              		.loc 1 203 0
  52              		.cfi_startproc
  53              		@ args = 0, pretend = 0, frame = 0
  54              		@ frame_needed = 0, uses_anonymous_args = 0
  55              		@ link register save eliminated.
  56              	.LVL1:
 204:Generated_Source\PSoC5/ISR_1m.c ****     cyisraddress * ramVectorTable;
 205:Generated_Source\PSoC5/ISR_1m.c **** 
 206:Generated_Source\PSoC5/ISR_1m.c ****     ramVectorTable = (cyisraddress *) *CYINT_VECT_TABLE;
  57              		.loc 1 206 0
  58 0000 014B     		ldr	r3, .L4
  59 0002 1B68     		ldr	r3, [r3]
  60              	.LVL2:
 207:Generated_Source\PSoC5/ISR_1m.c **** 
 208:Generated_Source\PSoC5/ISR_1m.c ****     ramVectorTable[CYINT_IRQ_BASE + (uint32)ISR_1m__INTC_NUMBER] = address;
  61              		.loc 1 208 0
  62 0004 1864     		str	r0, [r3, #64]
  63 0006 7047     		bx	lr
  64              	.L5:
  65              		.align	2
  66              	.L4:
  67 0008 08ED00E0 		.word	-536810232
  68              		.cfi_endproc
  69              	.LFE4:
  70              		.size	ISR_1m_SetVector, .-ISR_1m_SetVector
  71              		.section	.text.ISR_1m_GetVector,"ax",%progbits
  72              		.align	2
  73              		.global	ISR_1m_GetVector
  74              		.thumb
  75              		.thumb_func
  76              		.type	ISR_1m_GetVector, %function
  77              	ISR_1m_GetVector:
ARM GAS  C:\Users\TYROLY~1\AppData\Local\Temp\ccUPDJmc.s 			page 6


  78              	.LFB5:
 209:Generated_Source\PSoC5/ISR_1m.c **** }
 210:Generated_Source\PSoC5/ISR_1m.c **** 
 211:Generated_Source\PSoC5/ISR_1m.c **** 
 212:Generated_Source\PSoC5/ISR_1m.c **** /*******************************************************************************
 213:Generated_Source\PSoC5/ISR_1m.c **** * Function Name: ISR_1m_GetVector
 214:Generated_Source\PSoC5/ISR_1m.c **** ********************************************************************************
 215:Generated_Source\PSoC5/ISR_1m.c **** *
 216:Generated_Source\PSoC5/ISR_1m.c **** * Summary:
 217:Generated_Source\PSoC5/ISR_1m.c **** *   Gets the "address" of the current ISR vector for the Interrupt.
 218:Generated_Source\PSoC5/ISR_1m.c **** *
 219:Generated_Source\PSoC5/ISR_1m.c **** * Parameters:
 220:Generated_Source\PSoC5/ISR_1m.c **** *   None
 221:Generated_Source\PSoC5/ISR_1m.c **** *
 222:Generated_Source\PSoC5/ISR_1m.c **** * Return:
 223:Generated_Source\PSoC5/ISR_1m.c **** *   Address of the ISR in the interrupt vector table.
 224:Generated_Source\PSoC5/ISR_1m.c **** *
 225:Generated_Source\PSoC5/ISR_1m.c **** *******************************************************************************/
 226:Generated_Source\PSoC5/ISR_1m.c **** cyisraddress ISR_1m_GetVector(void)
 227:Generated_Source\PSoC5/ISR_1m.c **** {
  79              		.loc 1 227 0
  80              		.cfi_startproc
  81              		@ args = 0, pretend = 0, frame = 0
  82              		@ frame_needed = 0, uses_anonymous_args = 0
  83              		@ link register save eliminated.
 228:Generated_Source\PSoC5/ISR_1m.c ****     cyisraddress * ramVectorTable;
 229:Generated_Source\PSoC5/ISR_1m.c **** 
 230:Generated_Source\PSoC5/ISR_1m.c ****     ramVectorTable = (cyisraddress *) *CYINT_VECT_TABLE;
  84              		.loc 1 230 0
  85 0000 014B     		ldr	r3, .L7
  86 0002 1B68     		ldr	r3, [r3]
  87              	.LVL3:
 231:Generated_Source\PSoC5/ISR_1m.c **** 
 232:Generated_Source\PSoC5/ISR_1m.c ****     return ramVectorTable[CYINT_IRQ_BASE + (uint32)ISR_1m__INTC_NUMBER];
 233:Generated_Source\PSoC5/ISR_1m.c **** }
  88              		.loc 1 233 0
  89 0004 186C     		ldr	r0, [r3, #64]
  90 0006 7047     		bx	lr
  91              	.L8:
  92              		.align	2
  93              	.L7:
  94 0008 08ED00E0 		.word	-536810232
  95              		.cfi_endproc
  96              	.LFE5:
  97              		.size	ISR_1m_GetVector, .-ISR_1m_GetVector
  98              		.section	.text.ISR_1m_SetPriority,"ax",%progbits
  99              		.align	2
 100              		.global	ISR_1m_SetPriority
 101              		.thumb
 102              		.thumb_func
 103              		.type	ISR_1m_SetPriority, %function
 104              	ISR_1m_SetPriority:
 105              	.LFB6:
 234:Generated_Source\PSoC5/ISR_1m.c **** 
 235:Generated_Source\PSoC5/ISR_1m.c **** 
 236:Generated_Source\PSoC5/ISR_1m.c **** /*******************************************************************************
 237:Generated_Source\PSoC5/ISR_1m.c **** * Function Name: ISR_1m_SetPriority
ARM GAS  C:\Users\TYROLY~1\AppData\Local\Temp\ccUPDJmc.s 			page 7


 238:Generated_Source\PSoC5/ISR_1m.c **** ********************************************************************************
 239:Generated_Source\PSoC5/ISR_1m.c **** *
 240:Generated_Source\PSoC5/ISR_1m.c **** * Summary:
 241:Generated_Source\PSoC5/ISR_1m.c **** *   Sets the Priority of the Interrupt. 
 242:Generated_Source\PSoC5/ISR_1m.c **** *
 243:Generated_Source\PSoC5/ISR_1m.c **** *   Note calling ISR_1m_Start or ISR_1m_StartEx will 
 244:Generated_Source\PSoC5/ISR_1m.c **** *   override any effect this API would have had. This API should only be called
 245:Generated_Source\PSoC5/ISR_1m.c **** *   after ISR_1m_Start or ISR_1m_StartEx has been called. 
 246:Generated_Source\PSoC5/ISR_1m.c **** *   To set the initial priority for the component, use the Design-Wide Resources
 247:Generated_Source\PSoC5/ISR_1m.c **** *   Interrupt Editor.
 248:Generated_Source\PSoC5/ISR_1m.c **** *
 249:Generated_Source\PSoC5/ISR_1m.c **** *   Note This API has no effect on Non-maskable interrupt NMI).
 250:Generated_Source\PSoC5/ISR_1m.c **** *
 251:Generated_Source\PSoC5/ISR_1m.c **** * Parameters:
 252:Generated_Source\PSoC5/ISR_1m.c **** *   priority: Priority of the interrupt, 0 being the highest priority
 253:Generated_Source\PSoC5/ISR_1m.c **** *             PSoC 3 and PSoC 5LP: Priority is from 0 to 7.
 254:Generated_Source\PSoC5/ISR_1m.c **** *             PSoC 4: Priority is from 0 to 3.
 255:Generated_Source\PSoC5/ISR_1m.c **** *
 256:Generated_Source\PSoC5/ISR_1m.c **** * Return:
 257:Generated_Source\PSoC5/ISR_1m.c **** *   None
 258:Generated_Source\PSoC5/ISR_1m.c **** *
 259:Generated_Source\PSoC5/ISR_1m.c **** *******************************************************************************/
 260:Generated_Source\PSoC5/ISR_1m.c **** void ISR_1m_SetPriority(uint8 priority)
 261:Generated_Source\PSoC5/ISR_1m.c **** {
 106              		.loc 1 261 0
 107              		.cfi_startproc
 108              		@ args = 0, pretend = 0, frame = 0
 109              		@ frame_needed = 0, uses_anonymous_args = 0
 110              		@ link register save eliminated.
 111              	.LVL4:
 262:Generated_Source\PSoC5/ISR_1m.c ****     *ISR_1m_INTC_PRIOR = priority << 5;
 112              		.loc 1 262 0
 113 0000 4001     		lsls	r0, r0, #5
 114              	.LVL5:
 115 0002 C0B2     		uxtb	r0, r0
 116 0004 014B     		ldr	r3, .L10
 117 0006 1870     		strb	r0, [r3]
 118 0008 7047     		bx	lr
 119              	.L11:
 120 000a 00BF     		.align	2
 121              	.L10:
 122 000c 00E400E0 		.word	-536812544
 123              		.cfi_endproc
 124              	.LFE6:
 125              		.size	ISR_1m_SetPriority, .-ISR_1m_SetPriority
 126              		.section	.text.ISR_1m_GetPriority,"ax",%progbits
 127              		.align	2
 128              		.global	ISR_1m_GetPriority
 129              		.thumb
 130              		.thumb_func
 131              		.type	ISR_1m_GetPriority, %function
 132              	ISR_1m_GetPriority:
 133              	.LFB7:
 263:Generated_Source\PSoC5/ISR_1m.c **** }
 264:Generated_Source\PSoC5/ISR_1m.c **** 
 265:Generated_Source\PSoC5/ISR_1m.c **** 
 266:Generated_Source\PSoC5/ISR_1m.c **** /*******************************************************************************
ARM GAS  C:\Users\TYROLY~1\AppData\Local\Temp\ccUPDJmc.s 			page 8


 267:Generated_Source\PSoC5/ISR_1m.c **** * Function Name: ISR_1m_GetPriority
 268:Generated_Source\PSoC5/ISR_1m.c **** ********************************************************************************
 269:Generated_Source\PSoC5/ISR_1m.c **** *
 270:Generated_Source\PSoC5/ISR_1m.c **** * Summary:
 271:Generated_Source\PSoC5/ISR_1m.c **** *   Gets the Priority of the Interrupt.
 272:Generated_Source\PSoC5/ISR_1m.c **** *
 273:Generated_Source\PSoC5/ISR_1m.c **** * Parameters:
 274:Generated_Source\PSoC5/ISR_1m.c **** *   None
 275:Generated_Source\PSoC5/ISR_1m.c **** *
 276:Generated_Source\PSoC5/ISR_1m.c **** * Return:
 277:Generated_Source\PSoC5/ISR_1m.c **** *   Priority of the interrupt, 0 being the highest priority
 278:Generated_Source\PSoC5/ISR_1m.c **** *    PSoC 3 and PSoC 5LP: Priority is from 0 to 7.
 279:Generated_Source\PSoC5/ISR_1m.c **** *    PSoC 4: Priority is from 0 to 3.
 280:Generated_Source\PSoC5/ISR_1m.c **** *
 281:Generated_Source\PSoC5/ISR_1m.c **** *******************************************************************************/
 282:Generated_Source\PSoC5/ISR_1m.c **** uint8 ISR_1m_GetPriority(void)
 283:Generated_Source\PSoC5/ISR_1m.c **** {
 134              		.loc 1 283 0
 135              		.cfi_startproc
 136              		@ args = 0, pretend = 0, frame = 0
 137              		@ frame_needed = 0, uses_anonymous_args = 0
 138              		@ link register save eliminated.
 284:Generated_Source\PSoC5/ISR_1m.c ****     uint8 priority;
 285:Generated_Source\PSoC5/ISR_1m.c **** 
 286:Generated_Source\PSoC5/ISR_1m.c **** 
 287:Generated_Source\PSoC5/ISR_1m.c ****     priority = *ISR_1m_INTC_PRIOR >> 5;
 139              		.loc 1 287 0
 140 0000 014B     		ldr	r3, .L13
 141 0002 1878     		ldrb	r0, [r3]	@ zero_extendqisi2
 142              	.LVL6:
 288:Generated_Source\PSoC5/ISR_1m.c **** 
 289:Generated_Source\PSoC5/ISR_1m.c ****     return priority;
 290:Generated_Source\PSoC5/ISR_1m.c **** }
 143              		.loc 1 290 0
 144 0004 4009     		lsrs	r0, r0, #5
 145              	.LVL7:
 146 0006 7047     		bx	lr
 147              	.L14:
 148              		.align	2
 149              	.L13:
 150 0008 00E400E0 		.word	-536812544
 151              		.cfi_endproc
 152              	.LFE7:
 153              		.size	ISR_1m_GetPriority, .-ISR_1m_GetPriority
 154              		.section	.text.ISR_1m_Enable,"ax",%progbits
 155              		.align	2
 156              		.global	ISR_1m_Enable
 157              		.thumb
 158              		.thumb_func
 159              		.type	ISR_1m_Enable, %function
 160              	ISR_1m_Enable:
 161              	.LFB8:
 291:Generated_Source\PSoC5/ISR_1m.c **** 
 292:Generated_Source\PSoC5/ISR_1m.c **** 
 293:Generated_Source\PSoC5/ISR_1m.c **** /*******************************************************************************
 294:Generated_Source\PSoC5/ISR_1m.c **** * Function Name: ISR_1m_Enable
 295:Generated_Source\PSoC5/ISR_1m.c **** ********************************************************************************
ARM GAS  C:\Users\TYROLY~1\AppData\Local\Temp\ccUPDJmc.s 			page 9


 296:Generated_Source\PSoC5/ISR_1m.c **** *
 297:Generated_Source\PSoC5/ISR_1m.c **** * Summary:
 298:Generated_Source\PSoC5/ISR_1m.c **** *   Enables the interrupt to the interrupt controller. Do not call this function
 299:Generated_Source\PSoC5/ISR_1m.c **** *   unless ISR_Start() has been called or the functionality of the ISR_Start() 
 300:Generated_Source\PSoC5/ISR_1m.c **** *   function, which sets the vector and the priority, has been called.
 301:Generated_Source\PSoC5/ISR_1m.c **** *
 302:Generated_Source\PSoC5/ISR_1m.c **** * Parameters:
 303:Generated_Source\PSoC5/ISR_1m.c **** *   None
 304:Generated_Source\PSoC5/ISR_1m.c **** *
 305:Generated_Source\PSoC5/ISR_1m.c **** * Return:
 306:Generated_Source\PSoC5/ISR_1m.c **** *   None
 307:Generated_Source\PSoC5/ISR_1m.c **** *
 308:Generated_Source\PSoC5/ISR_1m.c **** *******************************************************************************/
 309:Generated_Source\PSoC5/ISR_1m.c **** void ISR_1m_Enable(void)
 310:Generated_Source\PSoC5/ISR_1m.c **** {
 162              		.loc 1 310 0
 163              		.cfi_startproc
 164              		@ args = 0, pretend = 0, frame = 0
 165              		@ frame_needed = 0, uses_anonymous_args = 0
 166              		@ link register save eliminated.
 311:Generated_Source\PSoC5/ISR_1m.c ****     /* Enable the general interrupt. */
 312:Generated_Source\PSoC5/ISR_1m.c ****     *ISR_1m_INTC_SET_EN = ISR_1m__INTC_MASK;
 167              		.loc 1 312 0
 168 0000 0122     		movs	r2, #1
 169 0002 014B     		ldr	r3, .L16
 170 0004 1A60     		str	r2, [r3]
 171 0006 7047     		bx	lr
 172              	.L17:
 173              		.align	2
 174              	.L16:
 175 0008 00E100E0 		.word	-536813312
 176              		.cfi_endproc
 177              	.LFE8:
 178              		.size	ISR_1m_Enable, .-ISR_1m_Enable
 179              		.section	.text.ISR_1m_GetState,"ax",%progbits
 180              		.align	2
 181              		.global	ISR_1m_GetState
 182              		.thumb
 183              		.thumb_func
 184              		.type	ISR_1m_GetState, %function
 185              	ISR_1m_GetState:
 186              	.LFB9:
 313:Generated_Source\PSoC5/ISR_1m.c **** }
 314:Generated_Source\PSoC5/ISR_1m.c **** 
 315:Generated_Source\PSoC5/ISR_1m.c **** 
 316:Generated_Source\PSoC5/ISR_1m.c **** /*******************************************************************************
 317:Generated_Source\PSoC5/ISR_1m.c **** * Function Name: ISR_1m_GetState
 318:Generated_Source\PSoC5/ISR_1m.c **** ********************************************************************************
 319:Generated_Source\PSoC5/ISR_1m.c **** *
 320:Generated_Source\PSoC5/ISR_1m.c **** * Summary:
 321:Generated_Source\PSoC5/ISR_1m.c **** *   Gets the state (enabled, disabled) of the Interrupt.
 322:Generated_Source\PSoC5/ISR_1m.c **** *
 323:Generated_Source\PSoC5/ISR_1m.c **** * Parameters:
 324:Generated_Source\PSoC5/ISR_1m.c **** *   None
 325:Generated_Source\PSoC5/ISR_1m.c **** *
 326:Generated_Source\PSoC5/ISR_1m.c **** * Return:
 327:Generated_Source\PSoC5/ISR_1m.c **** *   1 if enabled, 0 if disabled.
ARM GAS  C:\Users\TYROLY~1\AppData\Local\Temp\ccUPDJmc.s 			page 10


 328:Generated_Source\PSoC5/ISR_1m.c **** *
 329:Generated_Source\PSoC5/ISR_1m.c **** *******************************************************************************/
 330:Generated_Source\PSoC5/ISR_1m.c **** uint8 ISR_1m_GetState(void)
 331:Generated_Source\PSoC5/ISR_1m.c **** {
 187              		.loc 1 331 0
 188              		.cfi_startproc
 189              		@ args = 0, pretend = 0, frame = 0
 190              		@ frame_needed = 0, uses_anonymous_args = 0
 191              		@ link register save eliminated.
 332:Generated_Source\PSoC5/ISR_1m.c ****     /* Get the state of the general interrupt. */
 333:Generated_Source\PSoC5/ISR_1m.c ****     return ((*ISR_1m_INTC_SET_EN & (uint32)ISR_1m__INTC_MASK) != 0u) ? 1u:0u;
 192              		.loc 1 333 0
 193 0000 024B     		ldr	r3, .L19
 194 0002 1868     		ldr	r0, [r3]
 334:Generated_Source\PSoC5/ISR_1m.c **** }
 195              		.loc 1 334 0
 196 0004 00F00100 		and	r0, r0, #1
 197 0008 7047     		bx	lr
 198              	.L20:
 199 000a 00BF     		.align	2
 200              	.L19:
 201 000c 00E100E0 		.word	-536813312
 202              		.cfi_endproc
 203              	.LFE9:
 204              		.size	ISR_1m_GetState, .-ISR_1m_GetState
 205              		.section	.text.ISR_1m_Disable,"ax",%progbits
 206              		.align	2
 207              		.global	ISR_1m_Disable
 208              		.thumb
 209              		.thumb_func
 210              		.type	ISR_1m_Disable, %function
 211              	ISR_1m_Disable:
 212              	.LFB10:
 335:Generated_Source\PSoC5/ISR_1m.c **** 
 336:Generated_Source\PSoC5/ISR_1m.c **** 
 337:Generated_Source\PSoC5/ISR_1m.c **** /*******************************************************************************
 338:Generated_Source\PSoC5/ISR_1m.c **** * Function Name: ISR_1m_Disable
 339:Generated_Source\PSoC5/ISR_1m.c **** ********************************************************************************
 340:Generated_Source\PSoC5/ISR_1m.c **** *
 341:Generated_Source\PSoC5/ISR_1m.c **** * Summary:
 342:Generated_Source\PSoC5/ISR_1m.c **** *   Disables the Interrupt in the interrupt controller.
 343:Generated_Source\PSoC5/ISR_1m.c **** *
 344:Generated_Source\PSoC5/ISR_1m.c **** * Parameters:
 345:Generated_Source\PSoC5/ISR_1m.c **** *   None
 346:Generated_Source\PSoC5/ISR_1m.c **** *
 347:Generated_Source\PSoC5/ISR_1m.c **** * Return:
 348:Generated_Source\PSoC5/ISR_1m.c **** *   None
 349:Generated_Source\PSoC5/ISR_1m.c **** *
 350:Generated_Source\PSoC5/ISR_1m.c **** *******************************************************************************/
 351:Generated_Source\PSoC5/ISR_1m.c **** void ISR_1m_Disable(void)
 352:Generated_Source\PSoC5/ISR_1m.c **** {
 213              		.loc 1 352 0
 214              		.cfi_startproc
 215              		@ args = 0, pretend = 0, frame = 0
 216              		@ frame_needed = 0, uses_anonymous_args = 0
 217              		@ link register save eliminated.
 353:Generated_Source\PSoC5/ISR_1m.c ****     /* Disable the general interrupt. */
ARM GAS  C:\Users\TYROLY~1\AppData\Local\Temp\ccUPDJmc.s 			page 11


 354:Generated_Source\PSoC5/ISR_1m.c ****     *ISR_1m_INTC_CLR_EN = ISR_1m__INTC_MASK;
 218              		.loc 1 354 0
 219 0000 0122     		movs	r2, #1
 220 0002 014B     		ldr	r3, .L22
 221 0004 1A60     		str	r2, [r3]
 222 0006 7047     		bx	lr
 223              	.L23:
 224              		.align	2
 225              	.L22:
 226 0008 80E100E0 		.word	-536813184
 227              		.cfi_endproc
 228              	.LFE10:
 229              		.size	ISR_1m_Disable, .-ISR_1m_Disable
 230              		.section	.text.ISR_1m_Start,"ax",%progbits
 231              		.align	2
 232              		.global	ISR_1m_Start
 233              		.thumb
 234              		.thumb_func
 235              		.type	ISR_1m_Start, %function
 236              	ISR_1m_Start:
 237              	.LFB0:
  62:Generated_Source\PSoC5/ISR_1m.c ****     /* For all we know the interrupt is active. */
 238              		.loc 1 62 0
 239              		.cfi_startproc
 240              		@ args = 0, pretend = 0, frame = 0
 241              		@ frame_needed = 0, uses_anonymous_args = 0
 242 0000 08B5     		push	{r3, lr}
 243              		.cfi_def_cfa_offset 8
 244              		.cfi_offset 3, -8
 245              		.cfi_offset 14, -4
  64:Generated_Source\PSoC5/ISR_1m.c **** 
 246              		.loc 1 64 0
 247 0002 FFF7FEFF 		bl	ISR_1m_Disable
 248              	.LVL8:
  67:Generated_Source\PSoC5/ISR_1m.c **** 
 249              		.loc 1 67 0
 250 0006 0448     		ldr	r0, .L26
 251 0008 FFF7FEFF 		bl	ISR_1m_SetVector
 252              	.LVL9:
  70:Generated_Source\PSoC5/ISR_1m.c **** 
 253              		.loc 1 70 0
 254 000c 0720     		movs	r0, #7
 255 000e FFF7FEFF 		bl	ISR_1m_SetPriority
 256              	.LVL10:
  73:Generated_Source\PSoC5/ISR_1m.c **** }
 257              		.loc 1 73 0
 258 0012 FFF7FEFF 		bl	ISR_1m_Enable
 259              	.LVL11:
 260 0016 08BD     		pop	{r3, pc}
 261              	.L27:
 262              		.align	2
 263              	.L26:
 264 0018 00000000 		.word	ISR_1m_Interrupt
 265              		.cfi_endproc
 266              	.LFE0:
 267              		.size	ISR_1m_Start, .-ISR_1m_Start
 268              		.section	.text.ISR_1m_StartEx,"ax",%progbits
ARM GAS  C:\Users\TYROLY~1\AppData\Local\Temp\ccUPDJmc.s 			page 12


 269              		.align	2
 270              		.global	ISR_1m_StartEx
 271              		.thumb
 272              		.thumb_func
 273              		.type	ISR_1m_StartEx, %function
 274              	ISR_1m_StartEx:
 275              	.LFB1:
 105:Generated_Source\PSoC5/ISR_1m.c ****     /* For all we know the interrupt is active. */
 276              		.loc 1 105 0
 277              		.cfi_startproc
 278              		@ args = 0, pretend = 0, frame = 0
 279              		@ frame_needed = 0, uses_anonymous_args = 0
 280              	.LVL12:
 281 0000 10B5     		push	{r4, lr}
 282              		.cfi_def_cfa_offset 8
 283              		.cfi_offset 4, -8
 284              		.cfi_offset 14, -4
 285 0002 0446     		mov	r4, r0
 107:Generated_Source\PSoC5/ISR_1m.c **** 
 286              		.loc 1 107 0
 287 0004 FFF7FEFF 		bl	ISR_1m_Disable
 288              	.LVL13:
 110:Generated_Source\PSoC5/ISR_1m.c **** 
 289              		.loc 1 110 0
 290 0008 2046     		mov	r0, r4
 291 000a FFF7FEFF 		bl	ISR_1m_SetVector
 292              	.LVL14:
 113:Generated_Source\PSoC5/ISR_1m.c **** 
 293              		.loc 1 113 0
 294 000e 0720     		movs	r0, #7
 295 0010 FFF7FEFF 		bl	ISR_1m_SetPriority
 296              	.LVL15:
 116:Generated_Source\PSoC5/ISR_1m.c **** }
 297              		.loc 1 116 0
 298 0014 FFF7FEFF 		bl	ISR_1m_Enable
 299              	.LVL16:
 300 0018 10BD     		pop	{r4, pc}
 301              		.cfi_endproc
 302              	.LFE1:
 303              		.size	ISR_1m_StartEx, .-ISR_1m_StartEx
 304 001a 00BF     		.section	.text.ISR_1m_Stop,"ax",%progbits
 305              		.align	2
 306              		.global	ISR_1m_Stop
 307              		.thumb
 308              		.thumb_func
 309              		.type	ISR_1m_Stop, %function
 310              	ISR_1m_Stop:
 311              	.LFB2:
 135:Generated_Source\PSoC5/ISR_1m.c ****     /* Disable this interrupt. */
 312              		.loc 1 135 0
 313              		.cfi_startproc
 314              		@ args = 0, pretend = 0, frame = 0
 315              		@ frame_needed = 0, uses_anonymous_args = 0
 316 0000 08B5     		push	{r3, lr}
 317              		.cfi_def_cfa_offset 8
 318              		.cfi_offset 3, -8
 319              		.cfi_offset 14, -4
ARM GAS  C:\Users\TYROLY~1\AppData\Local\Temp\ccUPDJmc.s 			page 13


 137:Generated_Source\PSoC5/ISR_1m.c **** 
 320              		.loc 1 137 0
 321 0002 FFF7FEFF 		bl	ISR_1m_Disable
 322              	.LVL17:
 140:Generated_Source\PSoC5/ISR_1m.c **** }
 323              		.loc 1 140 0
 324 0006 0248     		ldr	r0, .L32
 325 0008 FFF7FEFF 		bl	ISR_1m_SetVector
 326              	.LVL18:
 327 000c 08BD     		pop	{r3, pc}
 328              	.L33:
 329 000e 00BF     		.align	2
 330              	.L32:
 331 0010 00000000 		.word	IntDefaultHandler
 332              		.cfi_endproc
 333              	.LFE2:
 334              		.size	ISR_1m_Stop, .-ISR_1m_Stop
 335              		.section	.text.ISR_1m_SetPending,"ax",%progbits
 336              		.align	2
 337              		.global	ISR_1m_SetPending
 338              		.thumb
 339              		.thumb_func
 340              		.type	ISR_1m_SetPending, %function
 341              	ISR_1m_SetPending:
 342              	.LFB11:
 355:Generated_Source\PSoC5/ISR_1m.c **** }
 356:Generated_Source\PSoC5/ISR_1m.c **** 
 357:Generated_Source\PSoC5/ISR_1m.c **** 
 358:Generated_Source\PSoC5/ISR_1m.c **** /*******************************************************************************
 359:Generated_Source\PSoC5/ISR_1m.c **** * Function Name: ISR_1m_SetPending
 360:Generated_Source\PSoC5/ISR_1m.c **** ********************************************************************************
 361:Generated_Source\PSoC5/ISR_1m.c **** *
 362:Generated_Source\PSoC5/ISR_1m.c **** * Summary:
 363:Generated_Source\PSoC5/ISR_1m.c **** *   Causes the Interrupt to enter the pending state, a software method of
 364:Generated_Source\PSoC5/ISR_1m.c **** *   generating the interrupt.
 365:Generated_Source\PSoC5/ISR_1m.c **** *
 366:Generated_Source\PSoC5/ISR_1m.c **** * Parameters:
 367:Generated_Source\PSoC5/ISR_1m.c **** *   None
 368:Generated_Source\PSoC5/ISR_1m.c **** *
 369:Generated_Source\PSoC5/ISR_1m.c **** * Return:
 370:Generated_Source\PSoC5/ISR_1m.c **** *   None
 371:Generated_Source\PSoC5/ISR_1m.c **** *
 372:Generated_Source\PSoC5/ISR_1m.c **** * Side Effects:
 373:Generated_Source\PSoC5/ISR_1m.c **** *   If interrupts are enabled and the interrupt is set up properly, the ISR is
 374:Generated_Source\PSoC5/ISR_1m.c **** *   entered (depending on the priority of this interrupt and other pending 
 375:Generated_Source\PSoC5/ISR_1m.c **** *   interrupts).
 376:Generated_Source\PSoC5/ISR_1m.c **** *
 377:Generated_Source\PSoC5/ISR_1m.c **** *******************************************************************************/
 378:Generated_Source\PSoC5/ISR_1m.c **** void ISR_1m_SetPending(void)
 379:Generated_Source\PSoC5/ISR_1m.c **** {
 343              		.loc 1 379 0
 344              		.cfi_startproc
 345              		@ args = 0, pretend = 0, frame = 0
 346              		@ frame_needed = 0, uses_anonymous_args = 0
 347              		@ link register save eliminated.
 380:Generated_Source\PSoC5/ISR_1m.c ****     *ISR_1m_INTC_SET_PD = ISR_1m__INTC_MASK;
 348              		.loc 1 380 0
ARM GAS  C:\Users\TYROLY~1\AppData\Local\Temp\ccUPDJmc.s 			page 14


 349 0000 0122     		movs	r2, #1
 350 0002 014B     		ldr	r3, .L35
 351 0004 1A60     		str	r2, [r3]
 352 0006 7047     		bx	lr
 353              	.L36:
 354              		.align	2
 355              	.L35:
 356 0008 00E200E0 		.word	-536813056
 357              		.cfi_endproc
 358              	.LFE11:
 359              		.size	ISR_1m_SetPending, .-ISR_1m_SetPending
 360              		.section	.text.ISR_1m_ClearPending,"ax",%progbits
 361              		.align	2
 362              		.global	ISR_1m_ClearPending
 363              		.thumb
 364              		.thumb_func
 365              		.type	ISR_1m_ClearPending, %function
 366              	ISR_1m_ClearPending:
 367              	.LFB12:
 381:Generated_Source\PSoC5/ISR_1m.c **** }
 382:Generated_Source\PSoC5/ISR_1m.c **** 
 383:Generated_Source\PSoC5/ISR_1m.c **** 
 384:Generated_Source\PSoC5/ISR_1m.c **** /*******************************************************************************
 385:Generated_Source\PSoC5/ISR_1m.c **** * Function Name: ISR_1m_ClearPending
 386:Generated_Source\PSoC5/ISR_1m.c **** ********************************************************************************
 387:Generated_Source\PSoC5/ISR_1m.c **** *
 388:Generated_Source\PSoC5/ISR_1m.c **** * Summary:
 389:Generated_Source\PSoC5/ISR_1m.c **** *   Clears a pending interrupt in the interrupt controller.
 390:Generated_Source\PSoC5/ISR_1m.c **** *
 391:Generated_Source\PSoC5/ISR_1m.c **** *   Note Some interrupt sources are clear-on-read and require the block 
 392:Generated_Source\PSoC5/ISR_1m.c **** *   interrupt/status register to be read/cleared with the appropriate block API 
 393:Generated_Source\PSoC5/ISR_1m.c **** *   (GPIO, UART, and so on). Otherwise the ISR will continue to remain in 
 394:Generated_Source\PSoC5/ISR_1m.c **** *   pending state even though the interrupt itself is cleared using this API.
 395:Generated_Source\PSoC5/ISR_1m.c **** *
 396:Generated_Source\PSoC5/ISR_1m.c **** * Parameters:
 397:Generated_Source\PSoC5/ISR_1m.c **** *   None
 398:Generated_Source\PSoC5/ISR_1m.c **** *
 399:Generated_Source\PSoC5/ISR_1m.c **** * Return:
 400:Generated_Source\PSoC5/ISR_1m.c **** *   None
 401:Generated_Source\PSoC5/ISR_1m.c **** *
 402:Generated_Source\PSoC5/ISR_1m.c **** *******************************************************************************/
 403:Generated_Source\PSoC5/ISR_1m.c **** void ISR_1m_ClearPending(void)
 404:Generated_Source\PSoC5/ISR_1m.c **** {
 368              		.loc 1 404 0
 369              		.cfi_startproc
 370              		@ args = 0, pretend = 0, frame = 0
 371              		@ frame_needed = 0, uses_anonymous_args = 0
 372              		@ link register save eliminated.
 405:Generated_Source\PSoC5/ISR_1m.c ****     *ISR_1m_INTC_CLR_PD = ISR_1m__INTC_MASK;
 373              		.loc 1 405 0
 374 0000 0122     		movs	r2, #1
 375 0002 014B     		ldr	r3, .L38
 376 0004 1A60     		str	r2, [r3]
 377 0006 7047     		bx	lr
 378              	.L39:
 379              		.align	2
 380              	.L38:
ARM GAS  C:\Users\TYROLY~1\AppData\Local\Temp\ccUPDJmc.s 			page 15


 381 0008 80E200E0 		.word	-536812928
 382              		.cfi_endproc
 383              	.LFE12:
 384              		.size	ISR_1m_ClearPending, .-ISR_1m_ClearPending
 385              		.text
 386              	.Letext0:
 387              		.file 2 "Generated_Source\\PSoC5/cytypes.h"
 388              		.file 3 "./isrs.h"