ARM GAS  C:\Users\TYROLY~1\AppData\Local\Temp\ccqlyLET.s 			page 1


   1              		.syntax unified
   2              		.cpu cortex-m3
   3              		.fpu softvfp
   4              		.eabi_attribute 20, 1
   5              		.eabi_attribute 21, 1
   6              		.eabi_attribute 23, 3
   7              		.eabi_attribute 24, 1
   8              		.eabi_attribute 25, 1
   9              		.eabi_attribute 26, 1
  10              		.eabi_attribute 30, 1
  11              		.eabi_attribute 34, 1
  12              		.eabi_attribute 18, 4
  13              		.thumb
  14              		.syntax unified
  15              		.file	"main.c"
  16              		.text
  17              	.Ltext0:
  18              		.cfi_sections	.debug_frame
  19              		.section	.text.main,"ax",%progbits
  20              		.align	2
  21              		.global	main
  22              		.thumb
  23              		.thumb_func
  24              		.type	main, %function
  25              	main:
  26              	.LFB63:
  27              		.file 1 "main.c"
   1:main.c        **** /* ========================================
   2:main.c        ****  *
   3:main.c        ****  * Copyright YOUR COMPANY, THE YEAR
   4:main.c        ****  * All Rights Reserved
   5:main.c        ****  * UNPUBLISHED, LICENSED SOFTWARE.
   6:main.c        ****  *
   7:main.c        ****  * CONFIDENTIAL AND PROPRIETARY INFORMATION
   8:main.c        ****  * WHICH IS THE PROPERTY OF your company.
   9:main.c        ****  *
  10:main.c        ****  * ========================================
  11:main.c        **** */
  12:main.c        **** 
  13:main.c        **** #include <stdlib.h>
  14:main.c        **** #include <unistd.h>
  15:main.c        **** 
  16:main.c        **** #include "project.h"
  17:main.c        **** 
  18:main.c        **** int main(void){
  28              		.loc 1 18 0
  29              		.cfi_startproc
  30              		@ Volatile: function does not return.
  31              		@ args = 0, pretend = 0, frame = 0
  32              		@ frame_needed = 0, uses_anonymous_args = 0
  33 0000 08B5     		push	{r3, lr}
  34              		.cfi_def_cfa_offset 8
  35              		.cfi_offset 3, -8
  36              		.cfi_offset 14, -4
  19:main.c        ****     CyGlobalIntEnable; /* Enable global interrupts. */
  37              		.loc 1 19 0
  38              		.syntax unified
ARM GAS  C:\Users\TYROLY~1\AppData\Local\Temp\ccqlyLET.s 			page 2


  39              	@ 19 "main.c" 1
  40 0002 62B6     		CPSIE   i
  41              	@ 0 "" 2
  42              		.thumb
  43              		.syntax unified
  44              	.L2:
  20:main.c        **** 
  21:main.c        ****     for(;;){
  22:main.c        ****         /* Place your application code here. */
  23:main.c        ****         LED_OUT_Write(1);
  45              		.loc 1 23 0 discriminator 1
  46 0004 0120     		movs	r0, #1
  47 0006 FFF7FEFF 		bl	LED_OUT_Write
  48              	.LVL0:
  24:main.c        ****         sleep(1);
  49              		.loc 1 24 0 discriminator 1
  50 000a 0120     		movs	r0, #1
  51 000c FFF7FEFF 		bl	sleep
  52              	.LVL1:
  25:main.c        ****         LED_OUT_Write(0);
  53              		.loc 1 25 0 discriminator 1
  54 0010 0020     		movs	r0, #0
  55 0012 FFF7FEFF 		bl	LED_OUT_Write
  56              	.LVL2:
  26:main.c        ****         sleep(0);
  57              		.loc 1 26 0 discriminator 1
  58 0016 0020     		movs	r0, #0
  59 0018 FFF7FEFF 		bl	sleep
  60              	.LVL3:
  61 001c F2E7     		b	.L2
  62              		.cfi_endproc
  63              	.LFE63:
  64              		.size	main, .-main
  65 001e 00BF     		.section	.text.ISR_1m,"ax",%progbits
  66              		.align	2
  67              		.global	ISR_1m
  68              		.thumb
  69              		.thumb_func
  70              		.type	ISR_1m, %function
  71              	ISR_1m:
  72              	.LFB64:
  27:main.c        ****     }
  28:main.c        ****     
  29:main.c        **** }
  30:main.c        **** 
  31:main.c        **** CY_ISR(ISR_1m){
  73              		.loc 1 31 0
  74              		.cfi_startproc
  75              		@ args = 0, pretend = 0, frame = 0
  76              		@ frame_needed = 0, uses_anonymous_args = 0
  77 0000 08B5     		push	{r3, lr}
  78              		.cfi_def_cfa_offset 8
  79              		.cfi_offset 3, -8
  80              		.cfi_offset 14, -4
  32:main.c        ****     LED_OUT_Write(1);
  81              		.loc 1 32 0
  82 0002 0120     		movs	r0, #1
ARM GAS  C:\Users\TYROLY~1\AppData\Local\Temp\ccqlyLET.s 			page 3


  83 0004 FFF7FEFF 		bl	LED_OUT_Write
  84              	.LVL4:
  33:main.c        ****     sleep(1);
  85              		.loc 1 33 0
  86 0008 0120     		movs	r0, #1
  87 000a FFF7FEFF 		bl	sleep
  88              	.LVL5:
  34:main.c        ****     LED_OUT_Write(0);
  89              		.loc 1 34 0
  90 000e 0020     		movs	r0, #0
  91 0010 FFF7FEFF 		bl	LED_OUT_Write
  92              	.LVL6:
  93 0014 08BD     		pop	{r3, pc}
  94              		.cfi_endproc
  95              	.LFE64:
  96              		.size	ISR_1m, .-ISR_1m
  97 0016 00BF     		.text
  98              	.Letext0:
  99              		.file 2 "c:\\program files (x86)\\cypress\\psoc creator\\4.2\\psoc creator\\import\\gnu\\arm\\5.4.
 100              		.file 3 "c:\\program files (x86)\\cypress\\psoc creator\\4.2\\psoc creator\\import\\gnu\\arm\\5.4.
 101              		.file 4 "Generated_Source\\PSoC5/LED_OUT.h"
 102              		.file 5 "c:\\program files (x86)\\cypress\\psoc creator\\4.2\\psoc creator\\import\\gnu\\arm\\5.4.
 103              		.file 6 "Generated_Source\\PSoC5/core_cm3.h"