ARM GAS  C:\Users\TYROLY~1\AppData\Local\Temp\ccpZvuXd.s 			page 1


   1              		.syntax unified
   2              		.cpu cortex-m3
   3              		.fpu softvfp
   4              		.eabi_attribute 20, 1
   5              		.eabi_attribute 21, 1
   6              		.eabi_attribute 23, 3
   7              		.eabi_attribute 24, 1
   8              		.eabi_attribute 25, 1
   9              		.eabi_attribute 26, 1
  10              		.eabi_attribute 30, 1
  11              		.eabi_attribute 34, 1
  12              		.eabi_attribute 18, 4
  13              		.thumb
  14              		.syntax unified
  15              		.file	"water_counter.c"
  16              		.text
  17              	.Ltext0:
  18              		.cfi_sections	.debug_frame
  19              		.section	.text.water_counter_Enable,"ax",%progbits
  20              		.align	2
  21              		.global	water_counter_Enable
  22              		.thumb
  23              		.thumb_func
  24              		.type	water_counter_Enable, %function
  25              	water_counter_Enable:
  26              	.LFB1:
  27              		.file 1 "Generated_Source\\PSoC5\\water_counter.c"
   1:Generated_Source\PSoC5/water_counter.c **** /*******************************************************************************
   2:Generated_Source\PSoC5/water_counter.c **** * File Name: water_counter.c  
   3:Generated_Source\PSoC5/water_counter.c **** * Version 3.0
   4:Generated_Source\PSoC5/water_counter.c **** *
   5:Generated_Source\PSoC5/water_counter.c **** *  Description:
   6:Generated_Source\PSoC5/water_counter.c **** *     The Counter component consists of a 8, 16, 24 or 32-bit counter with
   7:Generated_Source\PSoC5/water_counter.c **** *     a selectable period between 2 and 2^Width - 1.  
   8:Generated_Source\PSoC5/water_counter.c **** *
   9:Generated_Source\PSoC5/water_counter.c **** *   Note:
  10:Generated_Source\PSoC5/water_counter.c **** *     None
  11:Generated_Source\PSoC5/water_counter.c **** *
  12:Generated_Source\PSoC5/water_counter.c **** ********************************************************************************
  13:Generated_Source\PSoC5/water_counter.c **** * Copyright 2008-2012, Cypress Semiconductor Corporation.  All rights reserved.
  14:Generated_Source\PSoC5/water_counter.c **** * You may use this file only in accordance with the license, terms, conditions, 
  15:Generated_Source\PSoC5/water_counter.c **** * disclaimers, and limitations in the end user license agreement accompanying 
  16:Generated_Source\PSoC5/water_counter.c **** * the software package with which this file was provided.
  17:Generated_Source\PSoC5/water_counter.c **** *******************************************************************************/
  18:Generated_Source\PSoC5/water_counter.c **** 
  19:Generated_Source\PSoC5/water_counter.c **** #include "water_counter.h"
  20:Generated_Source\PSoC5/water_counter.c **** 
  21:Generated_Source\PSoC5/water_counter.c **** uint8 water_counter_initVar = 0u;
  22:Generated_Source\PSoC5/water_counter.c **** 
  23:Generated_Source\PSoC5/water_counter.c **** 
  24:Generated_Source\PSoC5/water_counter.c **** /*******************************************************************************
  25:Generated_Source\PSoC5/water_counter.c **** * Function Name: water_counter_Init
  26:Generated_Source\PSoC5/water_counter.c **** ********************************************************************************
  27:Generated_Source\PSoC5/water_counter.c **** * Summary:
  28:Generated_Source\PSoC5/water_counter.c **** *     Initialize to the schematic state
  29:Generated_Source\PSoC5/water_counter.c **** * 
  30:Generated_Source\PSoC5/water_counter.c **** * Parameters:  
ARM GAS  C:\Users\TYROLY~1\AppData\Local\Temp\ccpZvuXd.s 			page 2


  31:Generated_Source\PSoC5/water_counter.c **** *  void  
  32:Generated_Source\PSoC5/water_counter.c **** *
  33:Generated_Source\PSoC5/water_counter.c **** * Return: 
  34:Generated_Source\PSoC5/water_counter.c **** *  void
  35:Generated_Source\PSoC5/water_counter.c **** *
  36:Generated_Source\PSoC5/water_counter.c **** *******************************************************************************/
  37:Generated_Source\PSoC5/water_counter.c **** void water_counter_Init(void) 
  38:Generated_Source\PSoC5/water_counter.c **** {
  39:Generated_Source\PSoC5/water_counter.c ****         #if (!water_counter_UsingFixedFunction && !water_counter_ControlRegRemoved)
  40:Generated_Source\PSoC5/water_counter.c ****             uint8 ctrl;
  41:Generated_Source\PSoC5/water_counter.c ****         #endif /* (!water_counter_UsingFixedFunction && !water_counter_ControlRegRemoved) */
  42:Generated_Source\PSoC5/water_counter.c ****         
  43:Generated_Source\PSoC5/water_counter.c ****         #if(!water_counter_UsingFixedFunction) 
  44:Generated_Source\PSoC5/water_counter.c ****             /* Interrupt State Backup for Critical Region*/
  45:Generated_Source\PSoC5/water_counter.c ****             uint8 water_counter_interruptState;
  46:Generated_Source\PSoC5/water_counter.c ****         #endif /* (!water_counter_UsingFixedFunction) */
  47:Generated_Source\PSoC5/water_counter.c ****         
  48:Generated_Source\PSoC5/water_counter.c ****         #if (water_counter_UsingFixedFunction)
  49:Generated_Source\PSoC5/water_counter.c ****             /* Clear all bits but the enable bit (if it's already set for Timer operation */
  50:Generated_Source\PSoC5/water_counter.c ****             water_counter_CONTROL &= water_counter_CTRL_ENABLE;
  51:Generated_Source\PSoC5/water_counter.c ****             
  52:Generated_Source\PSoC5/water_counter.c ****             /* Clear the mode bits for continuous run mode */
  53:Generated_Source\PSoC5/water_counter.c ****             #if (CY_PSOC5A)
  54:Generated_Source\PSoC5/water_counter.c ****                 water_counter_CONTROL2 &= ((uint8)(~water_counter_CTRL_MODE_MASK));
  55:Generated_Source\PSoC5/water_counter.c ****             #endif /* (CY_PSOC5A) */
  56:Generated_Source\PSoC5/water_counter.c ****             #if (CY_PSOC3 || CY_PSOC5LP)
  57:Generated_Source\PSoC5/water_counter.c ****                 water_counter_CONTROL3 &= ((uint8)(~water_counter_CTRL_MODE_MASK));                
  58:Generated_Source\PSoC5/water_counter.c ****             #endif /* (CY_PSOC3 || CY_PSOC5LP) */
  59:Generated_Source\PSoC5/water_counter.c ****             /* Check if One Shot mode is enabled i.e. RunMode !=0*/
  60:Generated_Source\PSoC5/water_counter.c ****             #if (water_counter_RunModeUsed != 0x0u)
  61:Generated_Source\PSoC5/water_counter.c ****                 /* Set 3rd bit of Control register to enable one shot mode */
  62:Generated_Source\PSoC5/water_counter.c ****                 water_counter_CONTROL |= water_counter_ONESHOT;
  63:Generated_Source\PSoC5/water_counter.c ****             #endif /* (water_counter_RunModeUsed != 0x0u) */
  64:Generated_Source\PSoC5/water_counter.c ****             
  65:Generated_Source\PSoC5/water_counter.c ****             /* Set the IRQ to use the status register interrupts */
  66:Generated_Source\PSoC5/water_counter.c ****             water_counter_CONTROL2 |= water_counter_CTRL2_IRQ_SEL;
  67:Generated_Source\PSoC5/water_counter.c ****             
  68:Generated_Source\PSoC5/water_counter.c ****             /* Clear and Set SYNCTC and SYNCCMP bits of RT1 register */
  69:Generated_Source\PSoC5/water_counter.c ****             water_counter_RT1 &= ((uint8)(~water_counter_RT1_MASK));
  70:Generated_Source\PSoC5/water_counter.c ****             water_counter_RT1 |= water_counter_SYNC;     
  71:Generated_Source\PSoC5/water_counter.c ****                     
  72:Generated_Source\PSoC5/water_counter.c ****             /*Enable DSI Sync all all inputs of the Timer*/
  73:Generated_Source\PSoC5/water_counter.c ****             water_counter_RT1 &= ((uint8)(~water_counter_SYNCDSI_MASK));
  74:Generated_Source\PSoC5/water_counter.c ****             water_counter_RT1 |= water_counter_SYNCDSI_EN;
  75:Generated_Source\PSoC5/water_counter.c **** 
  76:Generated_Source\PSoC5/water_counter.c ****         #else
  77:Generated_Source\PSoC5/water_counter.c ****             #if(!water_counter_ControlRegRemoved)
  78:Generated_Source\PSoC5/water_counter.c ****             /* Set the default compare mode defined in the parameter */
  79:Generated_Source\PSoC5/water_counter.c ****             ctrl = water_counter_CONTROL & ((uint8)(~water_counter_CTRL_CMPMODE_MASK));
  80:Generated_Source\PSoC5/water_counter.c ****             water_counter_CONTROL = ctrl | water_counter_DEFAULT_COMPARE_MODE;
  81:Generated_Source\PSoC5/water_counter.c ****             
  82:Generated_Source\PSoC5/water_counter.c ****             /* Set the default capture mode defined in the parameter */
  83:Generated_Source\PSoC5/water_counter.c ****             ctrl = water_counter_CONTROL & ((uint8)(~water_counter_CTRL_CAPMODE_MASK));
  84:Generated_Source\PSoC5/water_counter.c ****             
  85:Generated_Source\PSoC5/water_counter.c ****             #if( 0 != water_counter_CAPTURE_MODE_CONF)
  86:Generated_Source\PSoC5/water_counter.c ****                 water_counter_CONTROL = ctrl | water_counter_DEFAULT_CAPTURE_MODE;
  87:Generated_Source\PSoC5/water_counter.c ****             #else
ARM GAS  C:\Users\TYROLY~1\AppData\Local\Temp\ccpZvuXd.s 			page 3


  88:Generated_Source\PSoC5/water_counter.c ****                 water_counter_CONTROL = ctrl;
  89:Generated_Source\PSoC5/water_counter.c ****             #endif /* 0 != water_counter_CAPTURE_MODE */ 
  90:Generated_Source\PSoC5/water_counter.c ****             
  91:Generated_Source\PSoC5/water_counter.c ****             #endif /* (!water_counter_ControlRegRemoved) */
  92:Generated_Source\PSoC5/water_counter.c ****         #endif /* (water_counter_UsingFixedFunction) */
  93:Generated_Source\PSoC5/water_counter.c ****         
  94:Generated_Source\PSoC5/water_counter.c ****         /* Clear all data in the FIFO's */
  95:Generated_Source\PSoC5/water_counter.c ****         #if (!water_counter_UsingFixedFunction)
  96:Generated_Source\PSoC5/water_counter.c ****             water_counter_ClearFIFO();
  97:Generated_Source\PSoC5/water_counter.c ****         #endif /* (!water_counter_UsingFixedFunction) */
  98:Generated_Source\PSoC5/water_counter.c ****         
  99:Generated_Source\PSoC5/water_counter.c ****         /* Set Initial values from Configuration */
 100:Generated_Source\PSoC5/water_counter.c ****         water_counter_WritePeriod(water_counter_INIT_PERIOD_VALUE);
 101:Generated_Source\PSoC5/water_counter.c ****         #if (!(water_counter_UsingFixedFunction && (CY_PSOC5A)))
 102:Generated_Source\PSoC5/water_counter.c ****             water_counter_WriteCounter(water_counter_INIT_COUNTER_VALUE);
 103:Generated_Source\PSoC5/water_counter.c ****         #endif /* (!(water_counter_UsingFixedFunction && (CY_PSOC5A))) */
 104:Generated_Source\PSoC5/water_counter.c ****         water_counter_SetInterruptMode(water_counter_INIT_INTERRUPTS_MASK);
 105:Generated_Source\PSoC5/water_counter.c ****         
 106:Generated_Source\PSoC5/water_counter.c ****         #if (!water_counter_UsingFixedFunction)
 107:Generated_Source\PSoC5/water_counter.c ****             /* Read the status register to clear the unwanted interrupts */
 108:Generated_Source\PSoC5/water_counter.c ****             (void)water_counter_ReadStatusRegister();
 109:Generated_Source\PSoC5/water_counter.c ****             /* Set the compare value (only available to non-fixed function implementation */
 110:Generated_Source\PSoC5/water_counter.c ****             water_counter_WriteCompare(water_counter_INIT_COMPARE_VALUE);
 111:Generated_Source\PSoC5/water_counter.c ****             /* Use the interrupt output of the status register for IRQ output */
 112:Generated_Source\PSoC5/water_counter.c ****             
 113:Generated_Source\PSoC5/water_counter.c ****             /* CyEnterCriticalRegion and CyExitCriticalRegion are used to mark following region cri
 114:Generated_Source\PSoC5/water_counter.c ****             /* Enter Critical Region*/
 115:Generated_Source\PSoC5/water_counter.c ****             water_counter_interruptState = CyEnterCriticalSection();
 116:Generated_Source\PSoC5/water_counter.c ****             
 117:Generated_Source\PSoC5/water_counter.c ****             water_counter_STATUS_AUX_CTRL |= water_counter_STATUS_ACTL_INT_EN_MASK;
 118:Generated_Source\PSoC5/water_counter.c ****             
 119:Generated_Source\PSoC5/water_counter.c ****             /* Exit Critical Region*/
 120:Generated_Source\PSoC5/water_counter.c ****             CyExitCriticalSection(water_counter_interruptState);
 121:Generated_Source\PSoC5/water_counter.c ****             
 122:Generated_Source\PSoC5/water_counter.c ****         #endif /* (!water_counter_UsingFixedFunction) */
 123:Generated_Source\PSoC5/water_counter.c **** }
 124:Generated_Source\PSoC5/water_counter.c **** 
 125:Generated_Source\PSoC5/water_counter.c **** 
 126:Generated_Source\PSoC5/water_counter.c **** /*******************************************************************************
 127:Generated_Source\PSoC5/water_counter.c **** * Function Name: water_counter_Enable
 128:Generated_Source\PSoC5/water_counter.c **** ********************************************************************************
 129:Generated_Source\PSoC5/water_counter.c **** * Summary:
 130:Generated_Source\PSoC5/water_counter.c **** *     Enable the Counter
 131:Generated_Source\PSoC5/water_counter.c **** * 
 132:Generated_Source\PSoC5/water_counter.c **** * Parameters:  
 133:Generated_Source\PSoC5/water_counter.c **** *  void  
 134:Generated_Source\PSoC5/water_counter.c **** *
 135:Generated_Source\PSoC5/water_counter.c **** * Return: 
 136:Generated_Source\PSoC5/water_counter.c **** *  void
 137:Generated_Source\PSoC5/water_counter.c **** *
 138:Generated_Source\PSoC5/water_counter.c **** * Side Effects: 
 139:Generated_Source\PSoC5/water_counter.c **** *   If the Enable mode is set to Hardware only then this function has no effect 
 140:Generated_Source\PSoC5/water_counter.c **** *   on the operation of the counter.
 141:Generated_Source\PSoC5/water_counter.c **** *
 142:Generated_Source\PSoC5/water_counter.c **** *******************************************************************************/
 143:Generated_Source\PSoC5/water_counter.c **** void water_counter_Enable(void) 
 144:Generated_Source\PSoC5/water_counter.c **** {
ARM GAS  C:\Users\TYROLY~1\AppData\Local\Temp\ccpZvuXd.s 			page 4


  28              		.loc 1 144 0
  29              		.cfi_startproc
  30              		@ args = 0, pretend = 0, frame = 0
  31              		@ frame_needed = 0, uses_anonymous_args = 0
  32              		@ link register save eliminated.
  33 0000 7047     		bx	lr
  34              		.cfi_endproc
  35              	.LFE1:
  36              		.size	water_counter_Enable, .-water_counter_Enable
  37 0002 00BF     		.section	.text.water_counter_Stop,"ax",%progbits
  38              		.align	2
  39              		.global	water_counter_Stop
  40              		.thumb
  41              		.thumb_func
  42              		.type	water_counter_Stop, %function
  43              	water_counter_Stop:
  44              	.LFB3:
 145:Generated_Source\PSoC5/water_counter.c ****     /* Globally Enable the Fixed Function Block chosen */
 146:Generated_Source\PSoC5/water_counter.c ****     #if (water_counter_UsingFixedFunction)
 147:Generated_Source\PSoC5/water_counter.c ****         water_counter_GLOBAL_ENABLE |= water_counter_BLOCK_EN_MASK;
 148:Generated_Source\PSoC5/water_counter.c ****         water_counter_GLOBAL_STBY_ENABLE |= water_counter_BLOCK_STBY_EN_MASK;
 149:Generated_Source\PSoC5/water_counter.c ****     #endif /* (water_counter_UsingFixedFunction) */  
 150:Generated_Source\PSoC5/water_counter.c ****         
 151:Generated_Source\PSoC5/water_counter.c ****     /* Enable the counter from the control register  */
 152:Generated_Source\PSoC5/water_counter.c ****     /* If Fixed Function then make sure Mode is set correctly */
 153:Generated_Source\PSoC5/water_counter.c ****     /* else make sure reset is clear */
 154:Generated_Source\PSoC5/water_counter.c ****     #if(!water_counter_ControlRegRemoved || water_counter_UsingFixedFunction)
 155:Generated_Source\PSoC5/water_counter.c ****         water_counter_CONTROL |= water_counter_CTRL_ENABLE;                
 156:Generated_Source\PSoC5/water_counter.c ****     #endif /* (!water_counter_ControlRegRemoved || water_counter_UsingFixedFunction) */
 157:Generated_Source\PSoC5/water_counter.c ****     
 158:Generated_Source\PSoC5/water_counter.c **** }
 159:Generated_Source\PSoC5/water_counter.c **** 
 160:Generated_Source\PSoC5/water_counter.c **** 
 161:Generated_Source\PSoC5/water_counter.c **** /*******************************************************************************
 162:Generated_Source\PSoC5/water_counter.c **** * Function Name: water_counter_Start
 163:Generated_Source\PSoC5/water_counter.c **** ********************************************************************************
 164:Generated_Source\PSoC5/water_counter.c **** * Summary:
 165:Generated_Source\PSoC5/water_counter.c **** *  Enables the counter for operation 
 166:Generated_Source\PSoC5/water_counter.c **** *
 167:Generated_Source\PSoC5/water_counter.c **** * Parameters:  
 168:Generated_Source\PSoC5/water_counter.c **** *  void  
 169:Generated_Source\PSoC5/water_counter.c **** *
 170:Generated_Source\PSoC5/water_counter.c **** * Return: 
 171:Generated_Source\PSoC5/water_counter.c **** *  void
 172:Generated_Source\PSoC5/water_counter.c **** *
 173:Generated_Source\PSoC5/water_counter.c **** * Global variables:
 174:Generated_Source\PSoC5/water_counter.c **** *  water_counter_initVar: Is modified when this function is called for the  
 175:Generated_Source\PSoC5/water_counter.c **** *   first time. Is used to ensure that initialization happens only once.
 176:Generated_Source\PSoC5/water_counter.c **** *
 177:Generated_Source\PSoC5/water_counter.c **** *******************************************************************************/
 178:Generated_Source\PSoC5/water_counter.c **** void water_counter_Start(void) 
 179:Generated_Source\PSoC5/water_counter.c **** {
 180:Generated_Source\PSoC5/water_counter.c ****     if(water_counter_initVar == 0u)
 181:Generated_Source\PSoC5/water_counter.c ****     {
 182:Generated_Source\PSoC5/water_counter.c ****         water_counter_Init();
 183:Generated_Source\PSoC5/water_counter.c ****         
 184:Generated_Source\PSoC5/water_counter.c ****         water_counter_initVar = 1u; /* Clear this bit for Initialization */        
ARM GAS  C:\Users\TYROLY~1\AppData\Local\Temp\ccpZvuXd.s 			page 5


 185:Generated_Source\PSoC5/water_counter.c ****     }
 186:Generated_Source\PSoC5/water_counter.c ****     
 187:Generated_Source\PSoC5/water_counter.c ****     /* Enable the Counter */
 188:Generated_Source\PSoC5/water_counter.c ****     water_counter_Enable();        
 189:Generated_Source\PSoC5/water_counter.c **** }
 190:Generated_Source\PSoC5/water_counter.c **** 
 191:Generated_Source\PSoC5/water_counter.c **** 
 192:Generated_Source\PSoC5/water_counter.c **** /*******************************************************************************
 193:Generated_Source\PSoC5/water_counter.c **** * Function Name: water_counter_Stop
 194:Generated_Source\PSoC5/water_counter.c **** ********************************************************************************
 195:Generated_Source\PSoC5/water_counter.c **** * Summary:
 196:Generated_Source\PSoC5/water_counter.c **** * Halts the counter, but does not change any modes or disable interrupts.
 197:Generated_Source\PSoC5/water_counter.c **** *
 198:Generated_Source\PSoC5/water_counter.c **** * Parameters:  
 199:Generated_Source\PSoC5/water_counter.c **** *  void  
 200:Generated_Source\PSoC5/water_counter.c **** *
 201:Generated_Source\PSoC5/water_counter.c **** * Return: 
 202:Generated_Source\PSoC5/water_counter.c **** *  void
 203:Generated_Source\PSoC5/water_counter.c **** *
 204:Generated_Source\PSoC5/water_counter.c **** * Side Effects: If the Enable mode is set to Hardware only then this function
 205:Generated_Source\PSoC5/water_counter.c **** *               has no effect on the operation of the counter.
 206:Generated_Source\PSoC5/water_counter.c **** *
 207:Generated_Source\PSoC5/water_counter.c **** *******************************************************************************/
 208:Generated_Source\PSoC5/water_counter.c **** void water_counter_Stop(void) 
 209:Generated_Source\PSoC5/water_counter.c **** {
  45              		.loc 1 209 0
  46              		.cfi_startproc
  47              		@ args = 0, pretend = 0, frame = 0
  48              		@ frame_needed = 0, uses_anonymous_args = 0
  49              		@ link register save eliminated.
  50 0000 7047     		bx	lr
  51              		.cfi_endproc
  52              	.LFE3:
  53              		.size	water_counter_Stop, .-water_counter_Stop
  54 0002 00BF     		.section	.text.water_counter_SetInterruptMode,"ax",%progbits
  55              		.align	2
  56              		.global	water_counter_SetInterruptMode
  57              		.thumb
  58              		.thumb_func
  59              		.type	water_counter_SetInterruptMode, %function
  60              	water_counter_SetInterruptMode:
  61              	.LFB4:
 210:Generated_Source\PSoC5/water_counter.c ****     /* Disable Counter */
 211:Generated_Source\PSoC5/water_counter.c ****     #if(!water_counter_ControlRegRemoved || water_counter_UsingFixedFunction)
 212:Generated_Source\PSoC5/water_counter.c ****         water_counter_CONTROL &= ((uint8)(~water_counter_CTRL_ENABLE));        
 213:Generated_Source\PSoC5/water_counter.c ****     #endif /* (!water_counter_ControlRegRemoved || water_counter_UsingFixedFunction) */
 214:Generated_Source\PSoC5/water_counter.c ****     
 215:Generated_Source\PSoC5/water_counter.c ****     /* Globally disable the Fixed Function Block chosen */
 216:Generated_Source\PSoC5/water_counter.c ****     #if (water_counter_UsingFixedFunction)
 217:Generated_Source\PSoC5/water_counter.c ****         water_counter_GLOBAL_ENABLE &= ((uint8)(~water_counter_BLOCK_EN_MASK));
 218:Generated_Source\PSoC5/water_counter.c ****         water_counter_GLOBAL_STBY_ENABLE &= ((uint8)(~water_counter_BLOCK_STBY_EN_MASK));
 219:Generated_Source\PSoC5/water_counter.c ****     #endif /* (water_counter_UsingFixedFunction) */
 220:Generated_Source\PSoC5/water_counter.c **** }
 221:Generated_Source\PSoC5/water_counter.c **** 
 222:Generated_Source\PSoC5/water_counter.c **** 
 223:Generated_Source\PSoC5/water_counter.c **** /*******************************************************************************
 224:Generated_Source\PSoC5/water_counter.c **** * Function Name: water_counter_SetInterruptMode
ARM GAS  C:\Users\TYROLY~1\AppData\Local\Temp\ccpZvuXd.s 			page 6


 225:Generated_Source\PSoC5/water_counter.c **** ********************************************************************************
 226:Generated_Source\PSoC5/water_counter.c **** * Summary:
 227:Generated_Source\PSoC5/water_counter.c **** * Configures which interrupt sources are enabled to generate the final interrupt
 228:Generated_Source\PSoC5/water_counter.c **** *
 229:Generated_Source\PSoC5/water_counter.c **** * Parameters:  
 230:Generated_Source\PSoC5/water_counter.c **** *  InterruptsMask: This parameter is an or'd collection of the status bits
 231:Generated_Source\PSoC5/water_counter.c **** *                   which will be allowed to generate the counters interrupt.   
 232:Generated_Source\PSoC5/water_counter.c **** *
 233:Generated_Source\PSoC5/water_counter.c **** * Return: 
 234:Generated_Source\PSoC5/water_counter.c **** *  void
 235:Generated_Source\PSoC5/water_counter.c **** *
 236:Generated_Source\PSoC5/water_counter.c **** *******************************************************************************/
 237:Generated_Source\PSoC5/water_counter.c **** void water_counter_SetInterruptMode(uint8 interruptsMask) 
 238:Generated_Source\PSoC5/water_counter.c **** {
  62              		.loc 1 238 0
  63              		.cfi_startproc
  64              		@ args = 0, pretend = 0, frame = 0
  65              		@ frame_needed = 0, uses_anonymous_args = 0
  66              		@ link register save eliminated.
  67              	.LVL0:
 239:Generated_Source\PSoC5/water_counter.c ****     water_counter_STATUS_MASK = interruptsMask;
  68              		.loc 1 239 0
  69 0000 014B     		ldr	r3, .L4
  70 0002 1870     		strb	r0, [r3]
  71 0004 7047     		bx	lr
  72              	.L5:
  73 0006 00BF     		.align	2
  74              	.L4:
  75 0008 8A640040 		.word	1073767562
  76              		.cfi_endproc
  77              	.LFE4:
  78              		.size	water_counter_SetInterruptMode, .-water_counter_SetInterruptMode
  79              		.section	.text.water_counter_ReadStatusRegister,"ax",%progbits
  80              		.align	2
  81              		.global	water_counter_ReadStatusRegister
  82              		.thumb
  83              		.thumb_func
  84              		.type	water_counter_ReadStatusRegister, %function
  85              	water_counter_ReadStatusRegister:
  86              	.LFB5:
 240:Generated_Source\PSoC5/water_counter.c **** }
 241:Generated_Source\PSoC5/water_counter.c **** 
 242:Generated_Source\PSoC5/water_counter.c **** 
 243:Generated_Source\PSoC5/water_counter.c **** /*******************************************************************************
 244:Generated_Source\PSoC5/water_counter.c **** * Function Name: water_counter_ReadStatusRegister
 245:Generated_Source\PSoC5/water_counter.c **** ********************************************************************************
 246:Generated_Source\PSoC5/water_counter.c **** * Summary:
 247:Generated_Source\PSoC5/water_counter.c **** *   Reads the status register and returns it's state. This function should use
 248:Generated_Source\PSoC5/water_counter.c **** *       defined types for the bit-field information as the bits in this
 249:Generated_Source\PSoC5/water_counter.c **** *       register may be permuteable.
 250:Generated_Source\PSoC5/water_counter.c **** *
 251:Generated_Source\PSoC5/water_counter.c **** * Parameters:  
 252:Generated_Source\PSoC5/water_counter.c **** *  void
 253:Generated_Source\PSoC5/water_counter.c **** *
 254:Generated_Source\PSoC5/water_counter.c **** * Return: 
 255:Generated_Source\PSoC5/water_counter.c **** *  (uint8) The contents of the status register
 256:Generated_Source\PSoC5/water_counter.c **** *
ARM GAS  C:\Users\TYROLY~1\AppData\Local\Temp\ccpZvuXd.s 			page 7


 257:Generated_Source\PSoC5/water_counter.c **** * Side Effects:
 258:Generated_Source\PSoC5/water_counter.c **** *   Status register bits may be clear on read. 
 259:Generated_Source\PSoC5/water_counter.c **** *
 260:Generated_Source\PSoC5/water_counter.c **** *******************************************************************************/
 261:Generated_Source\PSoC5/water_counter.c **** uint8   water_counter_ReadStatusRegister(void) 
 262:Generated_Source\PSoC5/water_counter.c **** {
  87              		.loc 1 262 0
  88              		.cfi_startproc
  89              		@ args = 0, pretend = 0, frame = 0
  90              		@ frame_needed = 0, uses_anonymous_args = 0
  91              		@ link register save eliminated.
 263:Generated_Source\PSoC5/water_counter.c ****     return water_counter_STATUS;
  92              		.loc 1 263 0
  93 0000 014B     		ldr	r3, .L7
  94 0002 1878     		ldrb	r0, [r3]	@ zero_extendqisi2
 264:Generated_Source\PSoC5/water_counter.c **** }
  95              		.loc 1 264 0
  96 0004 7047     		bx	lr
  97              	.L8:
  98 0006 00BF     		.align	2
  99              	.L7:
 100 0008 6A640040 		.word	1073767530
 101              		.cfi_endproc
 102              	.LFE5:
 103              		.size	water_counter_ReadStatusRegister, .-water_counter_ReadStatusRegister
 104              		.section	.text.water_counter_WriteCounter,"ax",%progbits
 105              		.align	2
 106              		.global	water_counter_WriteCounter
 107              		.thumb
 108              		.thumb_func
 109              		.type	water_counter_WriteCounter, %function
 110              	water_counter_WriteCounter:
 111              	.LFB6:
 265:Generated_Source\PSoC5/water_counter.c **** 
 266:Generated_Source\PSoC5/water_counter.c **** 
 267:Generated_Source\PSoC5/water_counter.c **** #if(!water_counter_ControlRegRemoved)
 268:Generated_Source\PSoC5/water_counter.c **** /*******************************************************************************
 269:Generated_Source\PSoC5/water_counter.c **** * Function Name: water_counter_ReadControlRegister
 270:Generated_Source\PSoC5/water_counter.c **** ********************************************************************************
 271:Generated_Source\PSoC5/water_counter.c **** * Summary:
 272:Generated_Source\PSoC5/water_counter.c **** *   Reads the control register and returns it's state. This function should use
 273:Generated_Source\PSoC5/water_counter.c **** *       defined types for the bit-field information as the bits in this
 274:Generated_Source\PSoC5/water_counter.c **** *       register may be permuteable.
 275:Generated_Source\PSoC5/water_counter.c **** *
 276:Generated_Source\PSoC5/water_counter.c **** * Parameters:  
 277:Generated_Source\PSoC5/water_counter.c **** *  void
 278:Generated_Source\PSoC5/water_counter.c **** *
 279:Generated_Source\PSoC5/water_counter.c **** * Return: 
 280:Generated_Source\PSoC5/water_counter.c **** *  (uint8) The contents of the control register
 281:Generated_Source\PSoC5/water_counter.c **** *
 282:Generated_Source\PSoC5/water_counter.c **** *******************************************************************************/
 283:Generated_Source\PSoC5/water_counter.c **** uint8   water_counter_ReadControlRegister(void) 
 284:Generated_Source\PSoC5/water_counter.c **** {
 285:Generated_Source\PSoC5/water_counter.c ****     return water_counter_CONTROL;
 286:Generated_Source\PSoC5/water_counter.c **** }
 287:Generated_Source\PSoC5/water_counter.c **** 
 288:Generated_Source\PSoC5/water_counter.c **** 
ARM GAS  C:\Users\TYROLY~1\AppData\Local\Temp\ccpZvuXd.s 			page 8


 289:Generated_Source\PSoC5/water_counter.c **** /*******************************************************************************
 290:Generated_Source\PSoC5/water_counter.c **** * Function Name: water_counter_WriteControlRegister
 291:Generated_Source\PSoC5/water_counter.c **** ********************************************************************************
 292:Generated_Source\PSoC5/water_counter.c **** * Summary:
 293:Generated_Source\PSoC5/water_counter.c **** *   Sets the bit-field of the control register.  This function should use
 294:Generated_Source\PSoC5/water_counter.c **** *       defined types for the bit-field information as the bits in this
 295:Generated_Source\PSoC5/water_counter.c **** *       register may be permuteable.
 296:Generated_Source\PSoC5/water_counter.c **** *
 297:Generated_Source\PSoC5/water_counter.c **** * Parameters:  
 298:Generated_Source\PSoC5/water_counter.c **** *  void
 299:Generated_Source\PSoC5/water_counter.c **** *
 300:Generated_Source\PSoC5/water_counter.c **** * Return: 
 301:Generated_Source\PSoC5/water_counter.c **** *  (uint8) The contents of the control register
 302:Generated_Source\PSoC5/water_counter.c **** *
 303:Generated_Source\PSoC5/water_counter.c **** *******************************************************************************/
 304:Generated_Source\PSoC5/water_counter.c **** void    water_counter_WriteControlRegister(uint8 control) 
 305:Generated_Source\PSoC5/water_counter.c **** {
 306:Generated_Source\PSoC5/water_counter.c ****     water_counter_CONTROL = control;
 307:Generated_Source\PSoC5/water_counter.c **** }
 308:Generated_Source\PSoC5/water_counter.c **** 
 309:Generated_Source\PSoC5/water_counter.c **** #endif  /* (!water_counter_ControlRegRemoved) */
 310:Generated_Source\PSoC5/water_counter.c **** 
 311:Generated_Source\PSoC5/water_counter.c **** 
 312:Generated_Source\PSoC5/water_counter.c **** #if (!(water_counter_UsingFixedFunction && (CY_PSOC5A)))
 313:Generated_Source\PSoC5/water_counter.c **** /*******************************************************************************
 314:Generated_Source\PSoC5/water_counter.c **** * Function Name: water_counter_WriteCounter
 315:Generated_Source\PSoC5/water_counter.c **** ********************************************************************************
 316:Generated_Source\PSoC5/water_counter.c **** * Summary:
 317:Generated_Source\PSoC5/water_counter.c **** *   This funtion is used to set the counter to a specific value
 318:Generated_Source\PSoC5/water_counter.c **** *
 319:Generated_Source\PSoC5/water_counter.c **** * Parameters:  
 320:Generated_Source\PSoC5/water_counter.c **** *  counter:  New counter value. 
 321:Generated_Source\PSoC5/water_counter.c **** *
 322:Generated_Source\PSoC5/water_counter.c **** * Return: 
 323:Generated_Source\PSoC5/water_counter.c **** *  void 
 324:Generated_Source\PSoC5/water_counter.c **** *
 325:Generated_Source\PSoC5/water_counter.c **** *******************************************************************************/
 326:Generated_Source\PSoC5/water_counter.c **** void water_counter_WriteCounter(uint32 counter) \
 327:Generated_Source\PSoC5/water_counter.c ****                                    
 328:Generated_Source\PSoC5/water_counter.c **** {
 112              		.loc 1 328 0
 113              		.cfi_startproc
 114              		@ args = 0, pretend = 0, frame = 0
 115              		@ frame_needed = 0, uses_anonymous_args = 0
 116              	.LVL1:
 117 0000 08B5     		push	{r3, lr}
 118              		.cfi_def_cfa_offset 8
 119              		.cfi_offset 3, -8
 120              		.cfi_offset 14, -4
 329:Generated_Source\PSoC5/water_counter.c ****     #if(water_counter_UsingFixedFunction)
 330:Generated_Source\PSoC5/water_counter.c ****         /* assert if block is already enabled */
 331:Generated_Source\PSoC5/water_counter.c ****         CYASSERT (0u == (water_counter_GLOBAL_ENABLE & water_counter_BLOCK_EN_MASK));
 332:Generated_Source\PSoC5/water_counter.c ****         /* If block is disabled, enable it and then write the counter */
 333:Generated_Source\PSoC5/water_counter.c ****         water_counter_GLOBAL_ENABLE |= water_counter_BLOCK_EN_MASK;
 334:Generated_Source\PSoC5/water_counter.c ****         CY_SET_REG16(water_counter_COUNTER_LSB_PTR, (uint16)counter);
 335:Generated_Source\PSoC5/water_counter.c ****         water_counter_GLOBAL_ENABLE &= ((uint8)(~water_counter_BLOCK_EN_MASK));
 336:Generated_Source\PSoC5/water_counter.c ****     #else
ARM GAS  C:\Users\TYROLY~1\AppData\Local\Temp\ccpZvuXd.s 			page 9


 337:Generated_Source\PSoC5/water_counter.c ****         CY_SET_REG24(water_counter_COUNTER_LSB_PTR, counter);
 121              		.loc 1 337 0
 122 0002 0146     		mov	r1, r0
 123 0004 0148     		ldr	r0, .L11
 124              	.LVL2:
 125 0006 FFF7FEFF 		bl	CySetReg24
 126              	.LVL3:
 127 000a 08BD     		pop	{r3, pc}
 128              	.L12:
 129              		.align	2
 130              	.L11:
 131 000c 08640040 		.word	1073767432
 132              		.cfi_endproc
 133              	.LFE6:
 134              		.size	water_counter_WriteCounter, .-water_counter_WriteCounter
 135              		.section	.text.water_counter_ReadCounter,"ax",%progbits
 136              		.align	2
 137              		.global	water_counter_ReadCounter
 138              		.thumb
 139              		.thumb_func
 140              		.type	water_counter_ReadCounter, %function
 141              	water_counter_ReadCounter:
 142              	.LFB7:
 338:Generated_Source\PSoC5/water_counter.c ****     #endif /* (water_counter_UsingFixedFunction) */
 339:Generated_Source\PSoC5/water_counter.c **** }
 340:Generated_Source\PSoC5/water_counter.c **** #endif /* (!(water_counter_UsingFixedFunction && (CY_PSOC5A))) */
 341:Generated_Source\PSoC5/water_counter.c **** 
 342:Generated_Source\PSoC5/water_counter.c **** 
 343:Generated_Source\PSoC5/water_counter.c **** /*******************************************************************************
 344:Generated_Source\PSoC5/water_counter.c **** * Function Name: water_counter_ReadCounter
 345:Generated_Source\PSoC5/water_counter.c **** ********************************************************************************
 346:Generated_Source\PSoC5/water_counter.c **** * Summary:
 347:Generated_Source\PSoC5/water_counter.c **** * Returns the current value of the counter.  It doesn't matter
 348:Generated_Source\PSoC5/water_counter.c **** * if the counter is enabled or running.
 349:Generated_Source\PSoC5/water_counter.c **** *
 350:Generated_Source\PSoC5/water_counter.c **** * Parameters:  
 351:Generated_Source\PSoC5/water_counter.c **** *  void:  
 352:Generated_Source\PSoC5/water_counter.c **** *
 353:Generated_Source\PSoC5/water_counter.c **** * Return: 
 354:Generated_Source\PSoC5/water_counter.c **** *  (uint32) The present value of the counter.
 355:Generated_Source\PSoC5/water_counter.c **** *
 356:Generated_Source\PSoC5/water_counter.c **** *******************************************************************************/
 357:Generated_Source\PSoC5/water_counter.c **** uint32 water_counter_ReadCounter(void) 
 358:Generated_Source\PSoC5/water_counter.c **** {
 143              		.loc 1 358 0
 144              		.cfi_startproc
 145              		@ args = 0, pretend = 0, frame = 0
 146              		@ frame_needed = 0, uses_anonymous_args = 0
 147              		@ link register save eliminated.
 359:Generated_Source\PSoC5/water_counter.c ****     /* Force capture by reading Accumulator */
 360:Generated_Source\PSoC5/water_counter.c ****     /* Must first do a software capture to be able to read the counter */
 361:Generated_Source\PSoC5/water_counter.c ****     /* It is up to the user code to make sure there isn't already captured data in the FIFO */
 362:Generated_Source\PSoC5/water_counter.c ****     #if(water_counter_UsingFixedFunction)
 363:Generated_Source\PSoC5/water_counter.c **** 		(void)CY_GET_REG16(water_counter_COUNTER_LSB_PTR);
 364:Generated_Source\PSoC5/water_counter.c **** 	#else
 365:Generated_Source\PSoC5/water_counter.c **** 		(void)CY_GET_REG8(water_counter_COUNTER_LSB_PTR_8BIT);
 148              		.loc 1 365 0
ARM GAS  C:\Users\TYROLY~1\AppData\Local\Temp\ccpZvuXd.s 			page 10


 149 0000 034B     		ldr	r3, .L14
 150 0002 1B78     		ldrb	r3, [r3]	@ zero_extendqisi2
 366:Generated_Source\PSoC5/water_counter.c **** 	#endif/* (water_counter_UsingFixedFunction) */
 367:Generated_Source\PSoC5/water_counter.c ****     
 368:Generated_Source\PSoC5/water_counter.c ****     /* Read the data from the FIFO (or capture register for Fixed Function)*/
 369:Generated_Source\PSoC5/water_counter.c ****     #if(water_counter_UsingFixedFunction)
 370:Generated_Source\PSoC5/water_counter.c ****         return ((uint32)CY_GET_REG16(water_counter_STATICCOUNT_LSB_PTR));
 371:Generated_Source\PSoC5/water_counter.c ****     #else
 372:Generated_Source\PSoC5/water_counter.c ****         return (CY_GET_REG24(water_counter_STATICCOUNT_LSB_PTR));
 151              		.loc 1 372 0
 152 0004 034B     		ldr	r3, .L14+4
 153 0006 1868     		ldr	r0, [r3]
 373:Generated_Source\PSoC5/water_counter.c ****     #endif /* (water_counter_UsingFixedFunction) */
 374:Generated_Source\PSoC5/water_counter.c **** }
 154              		.loc 1 374 0
 155 0008 20F07F40 		bic	r0, r0, #-16777216
 156 000c 7047     		bx	lr
 157              	.L15:
 158 000e 00BF     		.align	2
 159              	.L14:
 160 0010 08640040 		.word	1073767432
 161 0014 48640040 		.word	1073767496
 162              		.cfi_endproc
 163              	.LFE7:
 164              		.size	water_counter_ReadCounter, .-water_counter_ReadCounter
 165              		.section	.text.water_counter_ReadCapture,"ax",%progbits
 166              		.align	2
 167              		.global	water_counter_ReadCapture
 168              		.thumb
 169              		.thumb_func
 170              		.type	water_counter_ReadCapture, %function
 171              	water_counter_ReadCapture:
 172              	.LFB8:
 375:Generated_Source\PSoC5/water_counter.c **** 
 376:Generated_Source\PSoC5/water_counter.c **** 
 377:Generated_Source\PSoC5/water_counter.c **** /*******************************************************************************
 378:Generated_Source\PSoC5/water_counter.c **** * Function Name: water_counter_ReadCapture
 379:Generated_Source\PSoC5/water_counter.c **** ********************************************************************************
 380:Generated_Source\PSoC5/water_counter.c **** * Summary:
 381:Generated_Source\PSoC5/water_counter.c **** *   This function returns the last value captured.
 382:Generated_Source\PSoC5/water_counter.c **** *
 383:Generated_Source\PSoC5/water_counter.c **** * Parameters:  
 384:Generated_Source\PSoC5/water_counter.c **** *  void
 385:Generated_Source\PSoC5/water_counter.c **** *
 386:Generated_Source\PSoC5/water_counter.c **** * Return: 
 387:Generated_Source\PSoC5/water_counter.c **** *  (uint32) Present Capture value.
 388:Generated_Source\PSoC5/water_counter.c **** *
 389:Generated_Source\PSoC5/water_counter.c **** *******************************************************************************/
 390:Generated_Source\PSoC5/water_counter.c **** uint32 water_counter_ReadCapture(void) 
 391:Generated_Source\PSoC5/water_counter.c **** {
 173              		.loc 1 391 0
 174              		.cfi_startproc
 175              		@ args = 0, pretend = 0, frame = 0
 176              		@ frame_needed = 0, uses_anonymous_args = 0
 177              		@ link register save eliminated.
 392:Generated_Source\PSoC5/water_counter.c ****     #if(water_counter_UsingFixedFunction)
 393:Generated_Source\PSoC5/water_counter.c ****         return ((uint32)CY_GET_REG16(water_counter_STATICCOUNT_LSB_PTR));
ARM GAS  C:\Users\TYROLY~1\AppData\Local\Temp\ccpZvuXd.s 			page 11


 394:Generated_Source\PSoC5/water_counter.c ****     #else
 395:Generated_Source\PSoC5/water_counter.c ****         return (CY_GET_REG24(water_counter_STATICCOUNT_LSB_PTR));
 178              		.loc 1 395 0
 179 0000 024B     		ldr	r3, .L17
 180 0002 1868     		ldr	r0, [r3]
 396:Generated_Source\PSoC5/water_counter.c ****     #endif /* (water_counter_UsingFixedFunction) */
 397:Generated_Source\PSoC5/water_counter.c **** }
 181              		.loc 1 397 0
 182 0004 20F07F40 		bic	r0, r0, #-16777216
 183 0008 7047     		bx	lr
 184              	.L18:
 185 000a 00BF     		.align	2
 186              	.L17:
 187 000c 48640040 		.word	1073767496
 188              		.cfi_endproc
 189              	.LFE8:
 190              		.size	water_counter_ReadCapture, .-water_counter_ReadCapture
 191              		.section	.text.water_counter_WritePeriod,"ax",%progbits
 192              		.align	2
 193              		.global	water_counter_WritePeriod
 194              		.thumb
 195              		.thumb_func
 196              		.type	water_counter_WritePeriod, %function
 197              	water_counter_WritePeriod:
 198              	.LFB9:
 398:Generated_Source\PSoC5/water_counter.c **** 
 399:Generated_Source\PSoC5/water_counter.c **** 
 400:Generated_Source\PSoC5/water_counter.c **** /*******************************************************************************
 401:Generated_Source\PSoC5/water_counter.c **** * Function Name: water_counter_WritePeriod
 402:Generated_Source\PSoC5/water_counter.c **** ********************************************************************************
 403:Generated_Source\PSoC5/water_counter.c **** * Summary:
 404:Generated_Source\PSoC5/water_counter.c **** * Changes the period of the counter.  The new period 
 405:Generated_Source\PSoC5/water_counter.c **** * will be loaded the next time terminal count is detected.
 406:Generated_Source\PSoC5/water_counter.c **** *
 407:Generated_Source\PSoC5/water_counter.c **** * Parameters:  
 408:Generated_Source\PSoC5/water_counter.c **** *  period: (uint32) A value of 0 will result in
 409:Generated_Source\PSoC5/water_counter.c **** *         the counter remaining at zero.  
 410:Generated_Source\PSoC5/water_counter.c **** *
 411:Generated_Source\PSoC5/water_counter.c **** * Return: 
 412:Generated_Source\PSoC5/water_counter.c **** *  void
 413:Generated_Source\PSoC5/water_counter.c **** *
 414:Generated_Source\PSoC5/water_counter.c **** *******************************************************************************/
 415:Generated_Source\PSoC5/water_counter.c **** void water_counter_WritePeriod(uint32 period) 
 416:Generated_Source\PSoC5/water_counter.c **** {
 199              		.loc 1 416 0
 200              		.cfi_startproc
 201              		@ args = 0, pretend = 0, frame = 0
 202              		@ frame_needed = 0, uses_anonymous_args = 0
 203              	.LVL4:
 204 0000 08B5     		push	{r3, lr}
 205              		.cfi_def_cfa_offset 8
 206              		.cfi_offset 3, -8
 207              		.cfi_offset 14, -4
 417:Generated_Source\PSoC5/water_counter.c ****     #if(water_counter_UsingFixedFunction)
 418:Generated_Source\PSoC5/water_counter.c ****         CY_SET_REG16(water_counter_PERIOD_LSB_PTR,(uint16)period);
 419:Generated_Source\PSoC5/water_counter.c ****     #else
 420:Generated_Source\PSoC5/water_counter.c ****         CY_SET_REG24(water_counter_PERIOD_LSB_PTR, period);
ARM GAS  C:\Users\TYROLY~1\AppData\Local\Temp\ccpZvuXd.s 			page 12


 208              		.loc 1 420 0
 209 0002 0146     		mov	r1, r0
 210 0004 0148     		ldr	r0, .L21
 211              	.LVL5:
 212 0006 FFF7FEFF 		bl	CySetReg24
 213              	.LVL6:
 214 000a 08BD     		pop	{r3, pc}
 215              	.L22:
 216              		.align	2
 217              	.L21:
 218 000c 28640040 		.word	1073767464
 219              		.cfi_endproc
 220              	.LFE9:
 221              		.size	water_counter_WritePeriod, .-water_counter_WritePeriod
 222              		.section	.text.water_counter_ReadPeriod,"ax",%progbits
 223              		.align	2
 224              		.global	water_counter_ReadPeriod
 225              		.thumb
 226              		.thumb_func
 227              		.type	water_counter_ReadPeriod, %function
 228              	water_counter_ReadPeriod:
 229              	.LFB10:
 421:Generated_Source\PSoC5/water_counter.c ****     #endif /* (water_counter_UsingFixedFunction) */
 422:Generated_Source\PSoC5/water_counter.c **** }
 423:Generated_Source\PSoC5/water_counter.c **** 
 424:Generated_Source\PSoC5/water_counter.c **** 
 425:Generated_Source\PSoC5/water_counter.c **** /*******************************************************************************
 426:Generated_Source\PSoC5/water_counter.c **** * Function Name: water_counter_ReadPeriod
 427:Generated_Source\PSoC5/water_counter.c **** ********************************************************************************
 428:Generated_Source\PSoC5/water_counter.c **** * Summary:
 429:Generated_Source\PSoC5/water_counter.c **** * Reads the current period value without affecting counter operation.
 430:Generated_Source\PSoC5/water_counter.c **** *
 431:Generated_Source\PSoC5/water_counter.c **** * Parameters:  
 432:Generated_Source\PSoC5/water_counter.c **** *  void:  
 433:Generated_Source\PSoC5/water_counter.c **** *
 434:Generated_Source\PSoC5/water_counter.c **** * Return: 
 435:Generated_Source\PSoC5/water_counter.c **** *  (uint32) Present period value.
 436:Generated_Source\PSoC5/water_counter.c **** *
 437:Generated_Source\PSoC5/water_counter.c **** *******************************************************************************/
 438:Generated_Source\PSoC5/water_counter.c **** uint32 water_counter_ReadPeriod(void) 
 439:Generated_Source\PSoC5/water_counter.c **** {
 230              		.loc 1 439 0
 231              		.cfi_startproc
 232              		@ args = 0, pretend = 0, frame = 0
 233              		@ frame_needed = 0, uses_anonymous_args = 0
 234              		@ link register save eliminated.
 440:Generated_Source\PSoC5/water_counter.c ****     #if(water_counter_UsingFixedFunction)
 441:Generated_Source\PSoC5/water_counter.c ****         return ((uint32)CY_GET_REG16(water_counter_PERIOD_LSB_PTR));
 442:Generated_Source\PSoC5/water_counter.c ****     #else
 443:Generated_Source\PSoC5/water_counter.c ****         return (CY_GET_REG24(water_counter_PERIOD_LSB_PTR));
 235              		.loc 1 443 0
 236 0000 024B     		ldr	r3, .L24
 237 0002 1868     		ldr	r0, [r3]
 444:Generated_Source\PSoC5/water_counter.c ****     #endif /* (water_counter_UsingFixedFunction) */
 445:Generated_Source\PSoC5/water_counter.c **** }
 238              		.loc 1 445 0
 239 0004 20F07F40 		bic	r0, r0, #-16777216
ARM GAS  C:\Users\TYROLY~1\AppData\Local\Temp\ccpZvuXd.s 			page 13


 240 0008 7047     		bx	lr
 241              	.L25:
 242 000a 00BF     		.align	2
 243              	.L24:
 244 000c 28640040 		.word	1073767464
 245              		.cfi_endproc
 246              	.LFE10:
 247              		.size	water_counter_ReadPeriod, .-water_counter_ReadPeriod
 248              		.section	.text.water_counter_WriteCompare,"ax",%progbits
 249              		.align	2
 250              		.global	water_counter_WriteCompare
 251              		.thumb
 252              		.thumb_func
 253              		.type	water_counter_WriteCompare, %function
 254              	water_counter_WriteCompare:
 255              	.LFB11:
 446:Generated_Source\PSoC5/water_counter.c **** 
 447:Generated_Source\PSoC5/water_counter.c **** 
 448:Generated_Source\PSoC5/water_counter.c **** #if (!water_counter_UsingFixedFunction)
 449:Generated_Source\PSoC5/water_counter.c **** /*******************************************************************************
 450:Generated_Source\PSoC5/water_counter.c **** * Function Name: water_counter_WriteCompare
 451:Generated_Source\PSoC5/water_counter.c **** ********************************************************************************
 452:Generated_Source\PSoC5/water_counter.c **** * Summary:
 453:Generated_Source\PSoC5/water_counter.c **** * Changes the compare value.  The compare output will 
 454:Generated_Source\PSoC5/water_counter.c **** * reflect the new value on the next UDB clock.  The compare output will be 
 455:Generated_Source\PSoC5/water_counter.c **** * driven high when the present counter value compares true based on the 
 456:Generated_Source\PSoC5/water_counter.c **** * configured compare mode setting. 
 457:Generated_Source\PSoC5/water_counter.c **** *
 458:Generated_Source\PSoC5/water_counter.c **** * Parameters:  
 459:Generated_Source\PSoC5/water_counter.c **** *  Compare:  New compare value. 
 460:Generated_Source\PSoC5/water_counter.c **** *
 461:Generated_Source\PSoC5/water_counter.c **** * Return: 
 462:Generated_Source\PSoC5/water_counter.c **** *  void
 463:Generated_Source\PSoC5/water_counter.c **** *
 464:Generated_Source\PSoC5/water_counter.c **** *******************************************************************************/
 465:Generated_Source\PSoC5/water_counter.c **** void water_counter_WriteCompare(uint32 compare) \
 466:Generated_Source\PSoC5/water_counter.c ****                                    
 467:Generated_Source\PSoC5/water_counter.c **** {
 256              		.loc 1 467 0
 257              		.cfi_startproc
 258              		@ args = 0, pretend = 0, frame = 0
 259              		@ frame_needed = 0, uses_anonymous_args = 0
 260              	.LVL7:
 261 0000 08B5     		push	{r3, lr}
 262              		.cfi_def_cfa_offset 8
 263              		.cfi_offset 3, -8
 264              		.cfi_offset 14, -4
 468:Generated_Source\PSoC5/water_counter.c ****     #if(water_counter_UsingFixedFunction)
 469:Generated_Source\PSoC5/water_counter.c ****         CY_SET_REG16(water_counter_COMPARE_LSB_PTR, (uint16)compare);
 470:Generated_Source\PSoC5/water_counter.c ****     #else
 471:Generated_Source\PSoC5/water_counter.c ****         CY_SET_REG24(water_counter_COMPARE_LSB_PTR, compare);
 265              		.loc 1 471 0
 266 0002 0146     		mov	r1, r0
 267 0004 0148     		ldr	r0, .L28
 268              	.LVL8:
 269 0006 FFF7FEFF 		bl	CySetReg24
 270              	.LVL9:
ARM GAS  C:\Users\TYROLY~1\AppData\Local\Temp\ccpZvuXd.s 			page 14


 271 000a 08BD     		pop	{r3, pc}
 272              	.L29:
 273              		.align	2
 274              	.L28:
 275 000c 38640040 		.word	1073767480
 276              		.cfi_endproc
 277              	.LFE11:
 278              		.size	water_counter_WriteCompare, .-water_counter_WriteCompare
 279              		.section	.text.water_counter_ReadCompare,"ax",%progbits
 280              		.align	2
 281              		.global	water_counter_ReadCompare
 282              		.thumb
 283              		.thumb_func
 284              		.type	water_counter_ReadCompare, %function
 285              	water_counter_ReadCompare:
 286              	.LFB12:
 472:Generated_Source\PSoC5/water_counter.c ****     #endif /* (water_counter_UsingFixedFunction) */
 473:Generated_Source\PSoC5/water_counter.c **** }
 474:Generated_Source\PSoC5/water_counter.c **** 
 475:Generated_Source\PSoC5/water_counter.c **** 
 476:Generated_Source\PSoC5/water_counter.c **** /*******************************************************************************
 477:Generated_Source\PSoC5/water_counter.c **** * Function Name: water_counter_ReadCompare
 478:Generated_Source\PSoC5/water_counter.c **** ********************************************************************************
 479:Generated_Source\PSoC5/water_counter.c **** * Summary:
 480:Generated_Source\PSoC5/water_counter.c **** * Returns the compare value.
 481:Generated_Source\PSoC5/water_counter.c **** *
 482:Generated_Source\PSoC5/water_counter.c **** * Parameters:  
 483:Generated_Source\PSoC5/water_counter.c **** *  void:
 484:Generated_Source\PSoC5/water_counter.c **** *
 485:Generated_Source\PSoC5/water_counter.c **** * Return: 
 486:Generated_Source\PSoC5/water_counter.c **** *  (uint32) Present compare value.
 487:Generated_Source\PSoC5/water_counter.c **** *
 488:Generated_Source\PSoC5/water_counter.c **** *******************************************************************************/
 489:Generated_Source\PSoC5/water_counter.c **** uint32 water_counter_ReadCompare(void) 
 490:Generated_Source\PSoC5/water_counter.c **** {
 287              		.loc 1 490 0
 288              		.cfi_startproc
 289              		@ args = 0, pretend = 0, frame = 0
 290              		@ frame_needed = 0, uses_anonymous_args = 0
 291              		@ link register save eliminated.
 491:Generated_Source\PSoC5/water_counter.c ****     return (CY_GET_REG24(water_counter_COMPARE_LSB_PTR));
 292              		.loc 1 491 0
 293 0000 024B     		ldr	r3, .L31
 294 0002 1868     		ldr	r0, [r3]
 492:Generated_Source\PSoC5/water_counter.c **** }
 295              		.loc 1 492 0
 296 0004 20F07F40 		bic	r0, r0, #-16777216
 297 0008 7047     		bx	lr
 298              	.L32:
 299 000a 00BF     		.align	2
 300              	.L31:
 301 000c 38640040 		.word	1073767480
 302              		.cfi_endproc
 303              	.LFE12:
 304              		.size	water_counter_ReadCompare, .-water_counter_ReadCompare
 305              		.section	.text.water_counter_ClearFIFO,"ax",%progbits
 306              		.align	2
ARM GAS  C:\Users\TYROLY~1\AppData\Local\Temp\ccpZvuXd.s 			page 15


 307              		.global	water_counter_ClearFIFO
 308              		.thumb
 309              		.thumb_func
 310              		.type	water_counter_ClearFIFO, %function
 311              	water_counter_ClearFIFO:
 312              	.LFB13:
 493:Generated_Source\PSoC5/water_counter.c **** 
 494:Generated_Source\PSoC5/water_counter.c **** 
 495:Generated_Source\PSoC5/water_counter.c **** #if (water_counter_COMPARE_MODE_SOFTWARE)
 496:Generated_Source\PSoC5/water_counter.c **** /*******************************************************************************
 497:Generated_Source\PSoC5/water_counter.c **** * Function Name: water_counter_SetCompareMode
 498:Generated_Source\PSoC5/water_counter.c **** ********************************************************************************
 499:Generated_Source\PSoC5/water_counter.c **** * Summary:
 500:Generated_Source\PSoC5/water_counter.c **** *  Sets the software controlled Compare Mode.
 501:Generated_Source\PSoC5/water_counter.c **** *
 502:Generated_Source\PSoC5/water_counter.c **** * Parameters:
 503:Generated_Source\PSoC5/water_counter.c **** *  compareMode:  Compare Mode Enumerated Type.
 504:Generated_Source\PSoC5/water_counter.c **** *
 505:Generated_Source\PSoC5/water_counter.c **** * Return:
 506:Generated_Source\PSoC5/water_counter.c **** *  void
 507:Generated_Source\PSoC5/water_counter.c **** *
 508:Generated_Source\PSoC5/water_counter.c **** *******************************************************************************/
 509:Generated_Source\PSoC5/water_counter.c **** void water_counter_SetCompareMode(uint8 compareMode) 
 510:Generated_Source\PSoC5/water_counter.c **** {
 511:Generated_Source\PSoC5/water_counter.c ****     /* Clear the compare mode bits in the control register */
 512:Generated_Source\PSoC5/water_counter.c ****     water_counter_CONTROL &= ((uint8)(~water_counter_CTRL_CMPMODE_MASK));
 513:Generated_Source\PSoC5/water_counter.c ****     
 514:Generated_Source\PSoC5/water_counter.c ****     /* Write the new setting */
 515:Generated_Source\PSoC5/water_counter.c ****     water_counter_CONTROL |= compareMode;
 516:Generated_Source\PSoC5/water_counter.c **** }
 517:Generated_Source\PSoC5/water_counter.c **** #endif  /* (water_counter_COMPARE_MODE_SOFTWARE) */
 518:Generated_Source\PSoC5/water_counter.c **** 
 519:Generated_Source\PSoC5/water_counter.c **** 
 520:Generated_Source\PSoC5/water_counter.c **** #if (water_counter_CAPTURE_MODE_SOFTWARE)
 521:Generated_Source\PSoC5/water_counter.c **** /*******************************************************************************
 522:Generated_Source\PSoC5/water_counter.c **** * Function Name: water_counter_SetCaptureMode
 523:Generated_Source\PSoC5/water_counter.c **** ********************************************************************************
 524:Generated_Source\PSoC5/water_counter.c **** * Summary:
 525:Generated_Source\PSoC5/water_counter.c **** *  Sets the software controlled Capture Mode.
 526:Generated_Source\PSoC5/water_counter.c **** *
 527:Generated_Source\PSoC5/water_counter.c **** * Parameters:
 528:Generated_Source\PSoC5/water_counter.c **** *  captureMode:  Capture Mode Enumerated Type.
 529:Generated_Source\PSoC5/water_counter.c **** *
 530:Generated_Source\PSoC5/water_counter.c **** * Return:
 531:Generated_Source\PSoC5/water_counter.c **** *  void
 532:Generated_Source\PSoC5/water_counter.c **** *
 533:Generated_Source\PSoC5/water_counter.c **** *******************************************************************************/
 534:Generated_Source\PSoC5/water_counter.c **** void water_counter_SetCaptureMode(uint8 captureMode) 
 535:Generated_Source\PSoC5/water_counter.c **** {
 536:Generated_Source\PSoC5/water_counter.c ****     /* Clear the capture mode bits in the control register */
 537:Generated_Source\PSoC5/water_counter.c ****     water_counter_CONTROL &= ((uint8)(~water_counter_CTRL_CAPMODE_MASK));
 538:Generated_Source\PSoC5/water_counter.c ****     
 539:Generated_Source\PSoC5/water_counter.c ****     /* Write the new setting */
 540:Generated_Source\PSoC5/water_counter.c ****     water_counter_CONTROL |= ((uint8)((uint8)captureMode << water_counter_CTRL_CAPMODE0_SHIFT));
 541:Generated_Source\PSoC5/water_counter.c **** }
 542:Generated_Source\PSoC5/water_counter.c **** #endif  /* (water_counter_CAPTURE_MODE_SOFTWARE) */
 543:Generated_Source\PSoC5/water_counter.c **** 
ARM GAS  C:\Users\TYROLY~1\AppData\Local\Temp\ccpZvuXd.s 			page 16


 544:Generated_Source\PSoC5/water_counter.c **** 
 545:Generated_Source\PSoC5/water_counter.c **** /*******************************************************************************
 546:Generated_Source\PSoC5/water_counter.c **** * Function Name: water_counter_ClearFIFO
 547:Generated_Source\PSoC5/water_counter.c **** ********************************************************************************
 548:Generated_Source\PSoC5/water_counter.c **** * Summary:
 549:Generated_Source\PSoC5/water_counter.c **** *   This function clears all capture data from the capture FIFO
 550:Generated_Source\PSoC5/water_counter.c **** *
 551:Generated_Source\PSoC5/water_counter.c **** * Parameters:  
 552:Generated_Source\PSoC5/water_counter.c **** *  void:
 553:Generated_Source\PSoC5/water_counter.c **** *
 554:Generated_Source\PSoC5/water_counter.c **** * Return: 
 555:Generated_Source\PSoC5/water_counter.c **** *  None
 556:Generated_Source\PSoC5/water_counter.c **** *
 557:Generated_Source\PSoC5/water_counter.c **** *******************************************************************************/
 558:Generated_Source\PSoC5/water_counter.c **** void water_counter_ClearFIFO(void) 
 559:Generated_Source\PSoC5/water_counter.c **** {
 313              		.loc 1 559 0
 314              		.cfi_startproc
 315              		@ args = 0, pretend = 0, frame = 0
 316              		@ frame_needed = 0, uses_anonymous_args = 0
 317 0000 08B5     		push	{r3, lr}
 318              		.cfi_def_cfa_offset 8
 319              		.cfi_offset 3, -8
 320              		.cfi_offset 14, -4
 560:Generated_Source\PSoC5/water_counter.c **** 
 561:Generated_Source\PSoC5/water_counter.c ****     while(0u != (water_counter_ReadStatusRegister() & water_counter_STATUS_FIFONEMP))
 321              		.loc 1 561 0
 322 0002 01E0     		b	.L34
 323              	.L35:
 562:Generated_Source\PSoC5/water_counter.c ****     {
 563:Generated_Source\PSoC5/water_counter.c ****         (void)water_counter_ReadCapture();
 324              		.loc 1 563 0
 325 0004 FFF7FEFF 		bl	water_counter_ReadCapture
 326              	.LVL10:
 327              	.L34:
 561:Generated_Source\PSoC5/water_counter.c ****     {
 328              		.loc 1 561 0
 329 0008 FFF7FEFF 		bl	water_counter_ReadStatusRegister
 330              	.LVL11:
 331 000c 10F0400F 		tst	r0, #64
 332 0010 F8D1     		bne	.L35
 564:Generated_Source\PSoC5/water_counter.c ****     }
 565:Generated_Source\PSoC5/water_counter.c **** 
 566:Generated_Source\PSoC5/water_counter.c **** }
 333              		.loc 1 566 0
 334 0012 08BD     		pop	{r3, pc}
 335              		.cfi_endproc
 336              	.LFE13:
 337              		.size	water_counter_ClearFIFO, .-water_counter_ClearFIFO
 338              		.section	.text.water_counter_Init,"ax",%progbits
 339              		.align	2
 340              		.global	water_counter_Init
 341              		.thumb
 342              		.thumb_func
 343              		.type	water_counter_Init, %function
 344              	water_counter_Init:
 345              	.LFB0:
ARM GAS  C:\Users\TYROLY~1\AppData\Local\Temp\ccpZvuXd.s 			page 17


  38:Generated_Source\PSoC5/water_counter.c ****         #if (!water_counter_UsingFixedFunction && !water_counter_ControlRegRemoved)
 346              		.loc 1 38 0
 347              		.cfi_startproc
 348              		@ args = 0, pretend = 0, frame = 0
 349              		@ frame_needed = 0, uses_anonymous_args = 0
 350 0000 08B5     		push	{r3, lr}
 351              		.cfi_def_cfa_offset 8
 352              		.cfi_offset 3, -8
 353              		.cfi_offset 14, -4
  96:Generated_Source\PSoC5/water_counter.c ****         #endif /* (!water_counter_UsingFixedFunction) */
 354              		.loc 1 96 0
 355 0002 FFF7FEFF 		bl	water_counter_ClearFIFO
 356              	.LVL12:
 100:Generated_Source\PSoC5/water_counter.c ****         #if (!(water_counter_UsingFixedFunction && (CY_PSOC5A)))
 357              		.loc 1 100 0
 358 0006 0C48     		ldr	r0, .L39
 359 0008 FFF7FEFF 		bl	water_counter_WritePeriod
 360              	.LVL13:
 102:Generated_Source\PSoC5/water_counter.c ****         #endif /* (!(water_counter_UsingFixedFunction && (CY_PSOC5A))) */
 361              		.loc 1 102 0
 362 000c 0020     		movs	r0, #0
 363 000e FFF7FEFF 		bl	water_counter_WriteCounter
 364              	.LVL14:
 104:Generated_Source\PSoC5/water_counter.c ****         
 365              		.loc 1 104 0
 366 0012 0020     		movs	r0, #0
 367 0014 FFF7FEFF 		bl	water_counter_SetInterruptMode
 368              	.LVL15:
 108:Generated_Source\PSoC5/water_counter.c ****             /* Set the compare value (only available to non-fixed function implementation */
 369              		.loc 1 108 0
 370 0018 FFF7FEFF 		bl	water_counter_ReadStatusRegister
 371              	.LVL16:
 110:Generated_Source\PSoC5/water_counter.c ****             /* Use the interrupt output of the status register for IRQ output */
 372              		.loc 1 110 0
 373 001c 0748     		ldr	r0, .L39+4
 374 001e FFF7FEFF 		bl	water_counter_WriteCompare
 375              	.LVL17:
 115:Generated_Source\PSoC5/water_counter.c ****             
 376              		.loc 1 115 0
 377 0022 FFF7FEFF 		bl	CyEnterCriticalSection
 378              	.LVL18:
 117:Generated_Source\PSoC5/water_counter.c ****             
 379              		.loc 1 117 0
 380 0026 064A     		ldr	r2, .L39+8
 381 0028 1378     		ldrb	r3, [r2]	@ zero_extendqisi2
 382 002a 43F01003 		orr	r3, r3, #16
 383 002e 1370     		strb	r3, [r2]
 120:Generated_Source\PSoC5/water_counter.c ****             
 384              		.loc 1 120 0
 385 0030 FFF7FEFF 		bl	CyExitCriticalSection
 386              	.LVL19:
 387 0034 08BD     		pop	{r3, pc}
 388              	.L40:
 389 0036 00BF     		.align	2
 390              	.L39:
 391 0038 FEFFFF00 		.word	16777214
 392 003c FDFFFF00 		.word	16777213
ARM GAS  C:\Users\TYROLY~1\AppData\Local\Temp\ccpZvuXd.s 			page 18


 393 0040 9A640040 		.word	1073767578
 394              		.cfi_endproc
 395              	.LFE0:
 396              		.size	water_counter_Init, .-water_counter_Init
 397              		.section	.text.water_counter_Start,"ax",%progbits
 398              		.align	2
 399              		.global	water_counter_Start
 400              		.thumb
 401              		.thumb_func
 402              		.type	water_counter_Start, %function
 403              	water_counter_Start:
 404              	.LFB2:
 179:Generated_Source\PSoC5/water_counter.c ****     if(water_counter_initVar == 0u)
 405              		.loc 1 179 0
 406              		.cfi_startproc
 407              		@ args = 0, pretend = 0, frame = 0
 408              		@ frame_needed = 0, uses_anonymous_args = 0
 409 0000 08B5     		push	{r3, lr}
 410              		.cfi_def_cfa_offset 8
 411              		.cfi_offset 3, -8
 412              		.cfi_offset 14, -4
 180:Generated_Source\PSoC5/water_counter.c ****     {
 413              		.loc 1 180 0
 414 0002 044B     		ldr	r3, .L44
 415 0004 1B78     		ldrb	r3, [r3]	@ zero_extendqisi2
 416 0006 23B9     		cbnz	r3, .L41
 182:Generated_Source\PSoC5/water_counter.c ****         
 417              		.loc 1 182 0
 418 0008 FFF7FEFF 		bl	water_counter_Init
 419              	.LVL20:
 184:Generated_Source\PSoC5/water_counter.c ****     }
 420              		.loc 1 184 0
 421 000c 0122     		movs	r2, #1
 422 000e 014B     		ldr	r3, .L44
 423 0010 1A70     		strb	r2, [r3]
 424              	.L41:
 425 0012 08BD     		pop	{r3, pc}
 426              	.L45:
 427              		.align	2
 428              	.L44:
 429 0014 00000000 		.word	.LANCHOR0
 430              		.cfi_endproc
 431              	.LFE2:
 432              		.size	water_counter_Start, .-water_counter_Start
 433              		.global	water_counter_initVar
 434              		.bss
 435              		.set	.LANCHOR0,. + 0
 436              		.type	water_counter_initVar, %object
 437              		.size	water_counter_initVar, 1
 438              	water_counter_initVar:
 439 0000 00       		.space	1
 440              		.text
 441              	.Letext0:
 442              		.file 2 "Generated_Source\\PSoC5\\cytypes.h"
 443              		.file 3 "Generated_Source\\PSoC5\\CyLib.h"