ARM GAS  C:\Users\JACKNE~1\AppData\Local\Temp\ccIxO6oN.s 			page 1


   1              		.syntax unified
   2              		.cpu cortex-m3
   3              		.fpu softvfp
   4              		.eabi_attribute 20, 1
   5              		.eabi_attribute 21, 1
   6              		.eabi_attribute 23, 3
   7              		.eabi_attribute 24, 1
   8              		.eabi_attribute 25, 1
   9              		.eabi_attribute 26, 1
  10              		.eabi_attribute 30, 1
  11              		.eabi_attribute 34, 1
  12              		.eabi_attribute 18, 4
  13              		.thumb
  14              		.syntax unified
  15              		.file	"OneWire.c"
  16              		.text
  17              	.Ltext0:
  18              		.cfi_sections	.debug_frame
  19              		.section	.text.OW_Detect,"ax",%progbits
  20              		.align	2
  21              		.global	OW_Detect
  22              		.thumb
  23              		.thumb_func
  24              		.type	OW_Detect, %function
  25              	OW_Detect:
  26              	.LFB64:
  27              		.file 1 "OneWire.c"
   1:OneWire.c     **** 
   2:OneWire.c     **** 
   3:OneWire.c     **** #include "OneWire.h"
   4:OneWire.c     **** #include "cypins.h"
   5:OneWire.c     **** #include <stdio.h>
   6:OneWire.c     **** 
   7:OneWire.c     **** 
   8:OneWire.c     **** // the pin used to communicate with iButton.
   9:OneWire.c     **** static unsigned int owpin;
  10:OneWire.c     **** 
  11:OneWire.c     **** int OW_Detect(unsigned int pin)
  12:OneWire.c     **** {
  28              		.loc 1 12 0
  29              		.cfi_startproc
  30              		@ args = 0, pretend = 0, frame = 0
  31              		@ frame_needed = 0, uses_anonymous_args = 0
  32              	.LVL0:
  33 0000 10B5     		push	{r4, lr}
  34              		.cfi_def_cfa_offset 8
  35              		.cfi_offset 4, -8
  36              		.cfi_offset 14, -4
  13:OneWire.c     **** 	owpin=pin;
  37              		.loc 1 13 0
  38 0002 0B4C     		ldr	r4, .L3
  39 0004 2060     		str	r0, [r4]
  14:OneWire.c     **** 
  15:OneWire.c     **** 	CyPins_ClearPin(owpin);
  40              		.loc 1 15 0
  41 0006 0378     		ldrb	r3, [r0]	@ zero_extendqisi2
  42 0008 03F0FE03 		and	r3, r3, #254
ARM GAS  C:\Users\JACKNE~1\AppData\Local\Temp\ccIxO6oN.s 			page 2


  43 000c 0370     		strb	r3, [r0]
  16:OneWire.c     **** 	CyDelayUs(480);
  44              		.loc 1 16 0
  45 000e 4FF4F070 		mov	r0, #480
  46              	.LVL1:
  47 0012 FFF7FEFF 		bl	CyDelayUs
  48              	.LVL2:
  17:OneWire.c     **** 
  18:OneWire.c     **** 	CyPins_SetPin(owpin);
  49              		.loc 1 18 0
  50 0016 2268     		ldr	r2, [r4]
  51 0018 1378     		ldrb	r3, [r2]	@ zero_extendqisi2
  52 001a 43F00103 		orr	r3, r3, #1
  53 001e 1370     		strb	r3, [r2]
  19:OneWire.c     **** 	CyDelayUs(150);             // laengere Zeitspanne
  54              		.loc 1 19 0
  55 0020 9620     		movs	r0, #150
  56 0022 FFF7FEFF 		bl	CyDelayUs
  57              	.LVL3:
  20:OneWire.c     **** 
  21:OneWire.c     **** 	return CyPins_ReadPin(owpin);
  58              		.loc 1 21 0
  59 0026 2368     		ldr	r3, [r4]
  60 0028 1878     		ldrb	r0, [r3]	@ zero_extendqisi2
  22:OneWire.c     **** }
  61              		.loc 1 22 0
  62 002a 00F01000 		and	r0, r0, #16
  63 002e 10BD     		pop	{r4, pc}
  64              	.L4:
  65              		.align	2
  66              	.L3:
  67 0030 00000000 		.word	.LANCHOR0
  68              		.cfi_endproc
  69              	.LFE64:
  70              		.size	OW_Detect, .-OW_Detect
  71              		.section	.text.OW_WriteByte,"ax",%progbits
  72              		.align	2
  73              		.global	OW_WriteByte
  74              		.thumb
  75              		.thumb_func
  76              		.type	OW_WriteByte, %function
  77              	OW_WriteByte:
  78              	.LFB65:
  23:OneWire.c     **** 
  24:OneWire.c     **** void OW_WriteByte(unsigned char u8)
  25:OneWire.c     **** {
  79              		.loc 1 25 0
  80              		.cfi_startproc
  81              		@ args = 0, pretend = 0, frame = 0
  82              		@ frame_needed = 0, uses_anonymous_args = 0
  83              	.LVL4:
  84 0000 70B5     		push	{r4, r5, r6, lr}
  85              		.cfi_def_cfa_offset 16
  86              		.cfi_offset 4, -16
  87              		.cfi_offset 5, -12
  88              		.cfi_offset 6, -8
  89              		.cfi_offset 14, -4
ARM GAS  C:\Users\JACKNE~1\AppData\Local\Temp\ccIxO6oN.s 			page 3


  90 0002 0546     		mov	r5, r0
  91              	.LVL5:
  26:OneWire.c     **** 	int i=0;
  27:OneWire.c     **** 	for(i=0; i<8; i++)
  92              		.loc 1 27 0
  93 0004 0024     		movs	r4, #0
  94 0006 27E0     		b	.L6
  95              	.LVL6:
  96              	.L9:
  28:OneWire.c     **** 	{
  29:OneWire.c     **** 		if(u8 & 0x01)
  97              		.loc 1 29 0
  98 0008 15F0010F 		tst	r5, #1
  99 000c 11D0     		beq	.L7
  30:OneWire.c     **** 		{
  31:OneWire.c     **** 			CyPins_ClearPin(owpin);
 100              		.loc 1 31 0
 101 000e 144E     		ldr	r6, .L11
 102 0010 3268     		ldr	r2, [r6]
 103 0012 1378     		ldrb	r3, [r2]	@ zero_extendqisi2
 104 0014 03F0FE03 		and	r3, r3, #254
 105 0018 1370     		strb	r3, [r2]
  32:OneWire.c     **** 			CyDelayUs(6);
 106              		.loc 1 32 0
 107 001a 0620     		movs	r0, #6
 108 001c FFF7FEFF 		bl	CyDelayUs
 109              	.LVL7:
  33:OneWire.c     **** 			CyPins_SetPin(owpin);
 110              		.loc 1 33 0
 111 0020 3268     		ldr	r2, [r6]
 112 0022 1378     		ldrb	r3, [r2]	@ zero_extendqisi2
 113 0024 43F00103 		orr	r3, r3, #1
 114 0028 1370     		strb	r3, [r2]
  34:OneWire.c     **** 			CyDelayUs(64);
 115              		.loc 1 34 0
 116 002a 4020     		movs	r0, #64
 117 002c FFF7FEFF 		bl	CyDelayUs
 118              	.LVL8:
 119 0030 10E0     		b	.L8
 120              	.L7:
  35:OneWire.c     **** 		}
  36:OneWire.c     **** 		else
  37:OneWire.c     **** 		{
  38:OneWire.c     **** 			CyPins_ClearPin(owpin);
 121              		.loc 1 38 0
 122 0032 0B4E     		ldr	r6, .L11
 123 0034 3268     		ldr	r2, [r6]
 124 0036 1378     		ldrb	r3, [r2]	@ zero_extendqisi2
 125 0038 03F0FE03 		and	r3, r3, #254
 126 003c 1370     		strb	r3, [r2]
  39:OneWire.c     **** 			CyDelayUs(60);
 127              		.loc 1 39 0
 128 003e 3C20     		movs	r0, #60
 129 0040 FFF7FEFF 		bl	CyDelayUs
 130              	.LVL9:
  40:OneWire.c     **** 			CyPins_SetPin(owpin);
 131              		.loc 1 40 0
ARM GAS  C:\Users\JACKNE~1\AppData\Local\Temp\ccIxO6oN.s 			page 4


 132 0044 3268     		ldr	r2, [r6]
 133 0046 1378     		ldrb	r3, [r2]	@ zero_extendqisi2
 134 0048 43F00103 		orr	r3, r3, #1
 135 004c 1370     		strb	r3, [r2]
  41:OneWire.c     **** 			CyDelayUs(10);
 136              		.loc 1 41 0
 137 004e 0A20     		movs	r0, #10
 138 0050 FFF7FEFF 		bl	CyDelayUs
 139              	.LVL10:
 140              	.L8:
  42:OneWire.c     **** 		}
  43:OneWire.c     **** 
  44:OneWire.c     **** 		u8>>=1;
 141              		.loc 1 44 0 discriminator 2
 142 0054 6D08     		lsrs	r5, r5, #1
 143              	.LVL11:
  27:OneWire.c     **** 	{
 144              		.loc 1 27 0 discriminator 2
 145 0056 0134     		adds	r4, r4, #1
 146              	.LVL12:
 147              	.L6:
  27:OneWire.c     **** 	{
 148              		.loc 1 27 0 is_stmt 0 discriminator 1
 149 0058 072C     		cmp	r4, #7
 150 005a D5DD     		ble	.L9
  45:OneWire.c     **** 	}
  46:OneWire.c     **** }
 151              		.loc 1 46 0 is_stmt 1
 152 005c 70BD     		pop	{r4, r5, r6, pc}
 153              	.LVL13:
 154              	.L12:
 155 005e 00BF     		.align	2
 156              	.L11:
 157 0060 00000000 		.word	.LANCHOR0
 158              		.cfi_endproc
 159              	.LFE65:
 160              		.size	OW_WriteByte, .-OW_WriteByte
 161              		.section	.text.OW_ReadByte,"ax",%progbits
 162              		.align	2
 163              		.global	OW_ReadByte
 164              		.thumb
 165              		.thumb_func
 166              		.type	OW_ReadByte, %function
 167              	OW_ReadByte:
 168              	.LFB66:
  47:OneWire.c     **** 
  48:OneWire.c     **** unsigned char OW_ReadByte()
  49:OneWire.c     **** {
 169              		.loc 1 49 0
 170              		.cfi_startproc
 171              		@ args = 0, pretend = 0, frame = 0
 172              		@ frame_needed = 0, uses_anonymous_args = 0
 173 0000 70B5     		push	{r4, r5, r6, lr}
 174              		.cfi_def_cfa_offset 16
 175              		.cfi_offset 4, -16
 176              		.cfi_offset 5, -12
 177              		.cfi_offset 6, -8
ARM GAS  C:\Users\JACKNE~1\AppData\Local\Temp\ccIxO6oN.s 			page 5


 178              		.cfi_offset 14, -4
 179              	.LVL14:
  50:OneWire.c     **** 	unsigned char b=0;
  51:OneWire.c     **** 	int i=0;
 180              		.loc 1 51 0
 181 0002 0026     		movs	r6, #0
  50:OneWire.c     **** 	unsigned char b=0;
 182              		.loc 1 50 0
 183 0004 3446     		mov	r4, r6
  52:OneWire.c     **** 
  53:OneWire.c     **** 	while(i<8)
 184              		.loc 1 53 0
 185 0006 1EE0     		b	.L14
 186              	.LVL15:
 187              	.L16:
  54:OneWire.c     **** 	{
  55:OneWire.c     **** 		b >>= 1;
 188              		.loc 1 55 0
 189 0008 6408     		lsrs	r4, r4, #1
 190              	.LVL16:
  56:OneWire.c     **** 		CyPins_ClearPin(owpin);
 191              		.loc 1 56 0
 192 000a 114D     		ldr	r5, .L19
 193 000c 2A68     		ldr	r2, [r5]
 194 000e 1378     		ldrb	r3, [r2]	@ zero_extendqisi2
 195 0010 03F0FE03 		and	r3, r3, #254
 196 0014 1370     		strb	r3, [r2]
  57:OneWire.c     **** 		CyDelayUs(6);
 197              		.loc 1 57 0
 198 0016 0620     		movs	r0, #6
 199 0018 FFF7FEFF 		bl	CyDelayUs
 200              	.LVL17:
  58:OneWire.c     **** 		CyPins_SetPin(owpin);
 201              		.loc 1 58 0
 202 001c 2A68     		ldr	r2, [r5]
 203 001e 1378     		ldrb	r3, [r2]	@ zero_extendqisi2
 204 0020 43F00103 		orr	r3, r3, #1
 205 0024 1370     		strb	r3, [r2]
  59:OneWire.c     **** 		CyDelayUs(9);
 206              		.loc 1 59 0
 207 0026 0920     		movs	r0, #9
 208 0028 FFF7FEFF 		bl	CyDelayUs
 209              	.LVL18:
  60:OneWire.c     **** 
  61:OneWire.c     **** 		b |= (CyPins_ReadPin(owpin)>0) ? 0x80 : 0x00;
 210              		.loc 1 61 0
 211 002c 2B68     		ldr	r3, [r5]
 212 002e 1B78     		ldrb	r3, [r3]	@ zero_extendqisi2
 213 0030 13F0100F 		tst	r3, #16
 214 0034 01D0     		beq	.L17
 215 0036 8023     		movs	r3, #128
 216 0038 00E0     		b	.L15
 217              	.L17:
 218 003a 0023     		movs	r3, #0
 219              	.L15:
 220              		.loc 1 61 0 is_stmt 0 discriminator 4
 221 003c 1C43     		orrs	r4, r4, r3
ARM GAS  C:\Users\JACKNE~1\AppData\Local\Temp\ccIxO6oN.s 			page 6


 222              	.LVL19:
  62:OneWire.c     **** 		CyDelayUs(55);
 223              		.loc 1 62 0 is_stmt 1 discriminator 4
 224 003e 3720     		movs	r0, #55
 225 0040 FFF7FEFF 		bl	CyDelayUs
 226              	.LVL20:
  63:OneWire.c     **** 
  64:OneWire.c     **** 		i++;
 227              		.loc 1 64 0 discriminator 4
 228 0044 0136     		adds	r6, r6, #1
 229              	.LVL21:
 230              	.L14:
  53:OneWire.c     **** 	{
 231              		.loc 1 53 0
 232 0046 072E     		cmp	r6, #7
 233 0048 DEDD     		ble	.L16
  65:OneWire.c     **** 	}
  66:OneWire.c     **** 
  67:OneWire.c     **** 	return b;
  68:OneWire.c     **** 
  69:OneWire.c     **** }
 234              		.loc 1 69 0
 235 004a 2046     		mov	r0, r4
 236 004c 70BD     		pop	{r4, r5, r6, pc}
 237              	.LVL22:
 238              	.L20:
 239 004e 00BF     		.align	2
 240              	.L19:
 241 0050 00000000 		.word	.LANCHOR0
 242              		.cfi_endproc
 243              	.LFE66:
 244              		.size	OW_ReadByte, .-OW_ReadByte
 245              		.section	.text.OW_CRC,"ax",%progbits
 246              		.align	2
 247              		.global	OW_CRC
 248              		.thumb
 249              		.thumb_func
 250              		.type	OW_CRC, %function
 251              	OW_CRC:
 252              	.LFB67:
  70:OneWire.c     **** 
  71:OneWire.c     **** unsigned char OW_CRC(unsigned char *pBuf, int len)
  72:OneWire.c     **** {
 253              		.loc 1 72 0
 254              		.cfi_startproc
 255              		@ args = 0, pretend = 0, frame = 0
 256              		@ frame_needed = 0, uses_anonymous_args = 0
 257              		@ link register save eliminated.
 258              	.LVL23:
 259 0000 30B4     		push	{r4, r5}
 260              		.cfi_def_cfa_offset 8
 261              		.cfi_offset 4, -8
 262              		.cfi_offset 5, -4
 263 0002 0546     		mov	r5, r0
 264              	.LVL24:
  73:OneWire.c     **** 	unsigned char loop, i, shiftedBit;
  74:OneWire.c     **** 	unsigned char crc = 0x00;
ARM GAS  C:\Users\JACKNE~1\AppData\Local\Temp\ccIxO6oN.s 			page 7


 265              		.loc 1 74 0
 266 0004 0020     		movs	r0, #0
 267              	.LVL25:
  75:OneWire.c     **** 
  76:OneWire.c     **** 	for(loop=0; loop<len; loop++)
 268              		.loc 1 76 0
 269 0006 0446     		mov	r4, r0
 270 0008 10E0     		b	.L22
 271              	.LVL26:
 272              	.L26:
  77:OneWire.c     **** 	{
  78:OneWire.c     **** 		crc = (crc ^ pBuf[loop]);
 273              		.loc 1 78 0
 274 000a 2B5D     		ldrb	r3, [r5, r4]	@ zero_extendqisi2
 275 000c 5840     		eors	r0, r0, r3
 276              	.LVL27:
  79:OneWire.c     **** 
  80:OneWire.c     **** 		for(i=8; i>0; i--)
 277              		.loc 1 80 0
 278 000e 0823     		movs	r3, #8
 279 0010 08E0     		b	.L23
 280              	.LVL28:
 281              	.L25:
  81:OneWire.c     **** 		{
  82:OneWire.c     **** 			shiftedBit= (crc & 0x01);
 282              		.loc 1 82 0
 283 0012 00F00102 		and	r2, r0, #1
 284              	.LVL29:
  83:OneWire.c     **** 			crc >>= 1;
 285              		.loc 1 83 0
 286 0016 4008     		lsrs	r0, r0, #1
 287              	.LVL30:
  84:OneWire.c     **** 
  85:OneWire.c     **** 			if(shiftedBit)
 288              		.loc 1 85 0
 289 0018 12B1     		cbz	r2, .L24
  86:OneWire.c     **** 			{
  87:OneWire.c     **** 				crc = (crc ^ 0x8c);
 290              		.loc 1 87 0
 291 001a 80F08C00 		eor	r0, r0, #140
 292              	.LVL31:
 293 001e C0B2     		uxtb	r0, r0
 294              	.LVL32:
 295              	.L24:
  80:OneWire.c     **** 		{
 296              		.loc 1 80 0 discriminator 2
 297 0020 013B     		subs	r3, r3, #1
 298              	.LVL33:
 299 0022 DBB2     		uxtb	r3, r3
 300              	.LVL34:
 301              	.L23:
  80:OneWire.c     **** 		{
 302              		.loc 1 80 0 is_stmt 0 discriminator 1
 303 0024 002B     		cmp	r3, #0
 304 0026 F4D1     		bne	.L25
  76:OneWire.c     **** 	{
 305              		.loc 1 76 0 is_stmt 1 discriminator 2
ARM GAS  C:\Users\JACKNE~1\AppData\Local\Temp\ccIxO6oN.s 			page 8


 306 0028 0134     		adds	r4, r4, #1
 307              	.LVL35:
 308 002a E4B2     		uxtb	r4, r4
 309              	.LVL36:
 310              	.L22:
  76:OneWire.c     **** 	{
 311              		.loc 1 76 0 is_stmt 0 discriminator 1
 312 002c 8C42     		cmp	r4, r1
 313 002e ECDB     		blt	.L26
  88:OneWire.c     **** 			}
  89:OneWire.c     **** 		}
  90:OneWire.c     **** 	}
  91:OneWire.c     **** 
  92:OneWire.c     **** 	return crc;
  93:OneWire.c     **** }
 314              		.loc 1 93 0 is_stmt 1
 315 0030 30BC     		pop	{r4, r5}
 316              		.cfi_restore 5
 317              		.cfi_restore 4
 318              		.cfi_def_cfa_offset 0
 319              	.LVL37:
 320 0032 7047     		bx	lr
 321              		.cfi_endproc
 322              	.LFE67:
 323              		.size	OW_CRC, .-OW_CRC
 324              		.bss
 325              		.align	2
 326              		.set	.LANCHOR0,. + 0
 327              		.type	owpin, %object
 328              		.size	owpin, 4
 329              	owpin:
 330 0000 00000000 		.space	4
 331              		.text
 332              	.Letext0:
 333              		.file 2 "d:\\psoc creator\\psoc_creator\\psoc creator\\4.2\\psoc creator\\import\\gnu\\arm\\5.4.1\
 334              		.file 3 "d:\\psoc creator\\psoc_creator\\psoc creator\\4.2\\psoc creator\\import\\gnu\\arm\\5.4.1\
 335              		.file 4 "Generated_Source\\PSoC5/cytypes.h"
 336              		.file 5 "Generated_Source\\PSoC5/core_cm3.h"
 337              		.file 6 "Generated_Source\\PSoC5/CyLib.h"