ARM GAS  C:\Users\TYROLY~1\AppData\Local\Temp\ccApYB45.s 			page 1


   1              		.syntax unified
   2              		.cpu cortex-m3
   3              		.fpu softvfp
   4              		.eabi_attribute 20, 1
   5              		.eabi_attribute 21, 1
   6              		.eabi_attribute 23, 3
   7              		.eabi_attribute 24, 1
   8              		.eabi_attribute 25, 1
   9              		.eabi_attribute 26, 1
  10              		.eabi_attribute 30, 1
  11              		.eabi_attribute 34, 1
  12              		.eabi_attribute 18, 4
  13              		.thumb
  14              		.syntax unified
  15              		.file	"main.c"
  16              		.text
  17              	.Ltext0:
  18              		.cfi_sections	.debug_frame
  19              		.section	.text.main,"ax",%progbits
  20              		.align	2
  21              		.global	main
  22              		.thumb
  23              		.thumb_func
  24              		.type	main, %function
  25              	main:
  26              	.LFB64:
  27              		.file 1 "main.c"
   1:main.c        **** 
   2:main.c        **** #include "project.h"
   3:main.c        **** 
   4:main.c        **** #include <stdint.h>
   5:main.c        **** #include <stdio.h>
   6:main.c        **** 
   7:main.c        **** int main(){
  28              		.loc 1 7 0
  29              		.cfi_startproc
  30              		@ args = 0, pretend = 0, frame = 104
  31              		@ frame_needed = 0, uses_anonymous_args = 0
  32 0000 70B5     		push	{r4, r5, r6, lr}
  33              		.cfi_def_cfa_offset 16
  34              		.cfi_offset 4, -16
  35              		.cfi_offset 5, -12
  36              		.cfi_offset 6, -8
  37              		.cfi_offset 14, -4
  38 0002 9AB0     		sub	sp, sp, #104
  39              		.cfi_def_cfa_offset 120
   8:main.c        ****     
   9:main.c        ****     SPI_Start();
  40              		.loc 1 9 0
  41 0004 FFF7FEFF 		bl	SPI_Start
  42              	.LVL0:
  10:main.c        ****     UART_Start();
  43              		.loc 1 10 0
  44 0008 FFF7FEFF 		bl	UART_Start
  45              	.LVL1:
  11:main.c        **** 	CyGlobalIntEnable;
  46              		.loc 1 11 0
ARM GAS  C:\Users\TYROLY~1\AppData\Local\Temp\ccApYB45.s 			page 2


  47              		.syntax unified
  48              	@ 11 "main.c" 1
  49 000c 62B6     		CPSIE   i
  50              	@ 0 "" 2
  12:main.c        ****     
  13:main.c        ****     UART_PutString("INIT\r\n");
  51              		.loc 1 13 0
  52              		.thumb
  53              		.syntax unified
  54 000e 1C48     		ldr	r0, .L6
  55 0010 FFF7FEFF 		bl	UART_PutString
  56              	.LVL2:
  57              	.L4:
  58              	.LBB2:
  14:main.c        **** 	
  15:main.c        **** 	for(;;){
  16:main.c        **** 	    SPI_WriteTxData(00);
  59              		.loc 1 16 0
  60 0014 0020     		movs	r0, #0
  61 0016 FFF7FEFF 		bl	SPI_WriteTxData
  62              	.LVL3:
  17:main.c        ****         SPI_WriteTxData(00);
  63              		.loc 1 17 0
  64 001a 0020     		movs	r0, #0
  65 001c FFF7FEFF 		bl	SPI_WriteTxData
  66              	.LVL4:
  67              	.L2:
  18:main.c        ****         while(SPI_GetRxBufferSize() == 0){}
  68              		.loc 1 18 0 discriminator 1
  69 0020 FFF7FEFF 		bl	SPI_GetRxBufferSize
  70              	.LVL5:
  71 0024 0028     		cmp	r0, #0
  72 0026 FBD0     		beq	.L2
  19:main.c        ****         uint8_t recv1 = SPI_ReadRxData();
  73              		.loc 1 19 0
  74 0028 FFF7FEFF 		bl	SPI_ReadRxData
  75              	.LVL6:
  76 002c 0646     		mov	r6, r0
  77              	.LVL7:
  78              	.L3:
  20:main.c        **** 	    while(SPI_GetRxBufferSize() == 0){}
  79              		.loc 1 20 0 discriminator 1
  80 002e FFF7FEFF 		bl	SPI_GetRxBufferSize
  81              	.LVL8:
  82 0032 0028     		cmp	r0, #0
  83 0034 FBD0     		beq	.L3
  21:main.c        **** 	    uint8_t recv2 = SPI_ReadRxData();
  84              		.loc 1 21 0
  85 0036 FFF7FEFF 		bl	SPI_ReadRxData
  86              	.LVL9:
  87 003a 0546     		mov	r5, r0
  88              	.LVL10:
  22:main.c        ****         
  23:main.c        ****         UART_PutString("INIT\r\n");
  89              		.loc 1 23 0
  90 003c 1048     		ldr	r0, .L6
  91 003e FFF7FEFF 		bl	UART_PutString
ARM GAS  C:\Users\TYROLY~1\AppData\Local\Temp\ccApYB45.s 			page 3


  92              	.LVL11:
  24:main.c        ****         char buf[100];
  25:main.c        ****         memset(buf, 0, sizeof(buf));
  93              		.loc 1 25 0
  94 0042 6424     		movs	r4, #100
  95 0044 2246     		mov	r2, r4
  96 0046 0021     		movs	r1, #0
  97 0048 01A8     		add	r0, sp, #4
  98 004a FFF7FEFF 		bl	memset
  99              	.LVL12:
  26:main.c        ****         snprintf(buf, sizeof(buf), "Recv1: %X\r\n", recv1);
 100              		.loc 1 26 0
 101 004e 3346     		mov	r3, r6
 102 0050 0C4A     		ldr	r2, .L6+4
 103 0052 2146     		mov	r1, r4
 104 0054 01A8     		add	r0, sp, #4
 105 0056 FFF7FEFF 		bl	snprintf
 106              	.LVL13:
  27:main.c        ****         UART_PutString(buf);
 107              		.loc 1 27 0
 108 005a 01A8     		add	r0, sp, #4
 109 005c FFF7FEFF 		bl	UART_PutString
 110              	.LVL14:
  28:main.c        ****         memset(buf, 0, sizeof(buf));
 111              		.loc 1 28 0
 112 0060 2246     		mov	r2, r4
 113 0062 0021     		movs	r1, #0
 114 0064 01A8     		add	r0, sp, #4
 115 0066 FFF7FEFF 		bl	memset
 116              	.LVL15:
  29:main.c        ****         snprintf(buf, sizeof(buf), "Recv2: %X\r\n", recv2);
 117              		.loc 1 29 0
 118 006a 2B46     		mov	r3, r5
 119 006c 064A     		ldr	r2, .L6+8
 120 006e 2146     		mov	r1, r4
 121 0070 01A8     		add	r0, sp, #4
 122 0072 FFF7FEFF 		bl	snprintf
 123              	.LVL16:
  30:main.c        ****         UART_PutString(buf);
 124              		.loc 1 30 0
 125 0076 01A8     		add	r0, sp, #4
 126 0078 FFF7FEFF 		bl	UART_PutString
 127              	.LVL17:
 128              	.LBE2:
  31:main.c        ****         
  32:main.c        **** 	}
 129              		.loc 1 32 0
 130 007c CAE7     		b	.L4
 131              	.L7:
 132 007e 00BF     		.align	2
 133              	.L6:
 134 0080 00000000 		.word	.LC0
 135 0084 08000000 		.word	.LC1
 136 0088 14000000 		.word	.LC2
 137              		.cfi_endproc
 138              	.LFE64:
 139              		.size	main, .-main
ARM GAS  C:\Users\TYROLY~1\AppData\Local\Temp\ccApYB45.s 			page 4


 140              		.section	.rodata.str1.4,"aMS",%progbits,1
 141              		.align	2
 142              	.LC0:
 143 0000 494E4954 		.ascii	"INIT\015\012\000"
 143      0D0A00
 144 0007 00       		.space	1
 145              	.LC1:
 146 0008 52656376 		.ascii	"Recv1: %X\015\012\000"
 146      313A2025 
 146      580D0A00 
 147              	.LC2:
 148 0014 52656376 		.ascii	"Recv2: %X\015\012\000"
 148      323A2025 
 148      580D0A00 
 149              		.text
 150              	.Letext0:
 151              		.file 2 "c:\\program files (x86)\\cypress\\psoc creator\\4.2\\psoc creator\\import\\gnu\\arm\\5.4.
 152              		.file 3 "c:\\program files (x86)\\cypress\\psoc creator\\4.2\\psoc creator\\import\\gnu\\arm\\5.4.
 153              		.file 4 "Generated_Source\\PSoC5/SPI.h"
 154              		.file 5 "Generated_Source\\PSoC5/UART.h"
 155              		.file 6 "c:\\program files (x86)\\cypress\\psoc creator\\4.2\\psoc creator\\import\\gnu\\arm\\5.4.
 156              		.file 7 "Generated_Source\\PSoC5/core_cm3.h"