ARM GAS  C:\Users\TYROLY~1\AppData\Local\Temp\ccqtcK3d.s 			page 1


   1              		.syntax unified
   2              		.cpu cortex-m3
   3              		.fpu softvfp
   4              		.eabi_attribute 20, 1
   5              		.eabi_attribute 21, 1
   6              		.eabi_attribute 23, 3
   7              		.eabi_attribute 24, 1
   8              		.eabi_attribute 25, 1
   9              		.eabi_attribute 26, 1
  10              		.eabi_attribute 30, 1
  11              		.eabi_attribute 34, 1
  12              		.eabi_attribute 18, 4
  13              		.thumb
  14              		.syntax unified
  15              		.file	"int_1us.c"
  16              		.text
  17              	.Ltext0:
  18              		.cfi_sections	.debug_frame
  19              		.section	.text.int_1us_Interrupt,"ax",%progbits
  20              		.align	2
  21              		.global	int_1us_Interrupt
  22              		.thumb
  23              		.thumb_func
  24              		.type	int_1us_Interrupt, %function
  25              	int_1us_Interrupt:
  26              	.LFB3:
  27              		.file 1 "Generated_Source\\PSoC5\\int_1us.c"
   1:Generated_Source\PSoC5/int_1us.c **** /*******************************************************************************
   2:Generated_Source\PSoC5/int_1us.c **** * File Name: int_1us.c  
   3:Generated_Source\PSoC5/int_1us.c **** * Version 1.70
   4:Generated_Source\PSoC5/int_1us.c **** *
   5:Generated_Source\PSoC5/int_1us.c **** *  Description:
   6:Generated_Source\PSoC5/int_1us.c **** *   API for controlling the state of an interrupt.
   7:Generated_Source\PSoC5/int_1us.c **** *
   8:Generated_Source\PSoC5/int_1us.c **** *
   9:Generated_Source\PSoC5/int_1us.c **** *  Note:
  10:Generated_Source\PSoC5/int_1us.c **** *
  11:Generated_Source\PSoC5/int_1us.c **** ********************************************************************************
  12:Generated_Source\PSoC5/int_1us.c **** * Copyright 2008-2015, Cypress Semiconductor Corporation.  All rights reserved.
  13:Generated_Source\PSoC5/int_1us.c **** * You may use this file only in accordance with the license, terms, conditions, 
  14:Generated_Source\PSoC5/int_1us.c **** * disclaimers, and limitations in the end user license agreement accompanying 
  15:Generated_Source\PSoC5/int_1us.c **** * the software package with which this file was provided.
  16:Generated_Source\PSoC5/int_1us.c **** *******************************************************************************/
  17:Generated_Source\PSoC5/int_1us.c **** 
  18:Generated_Source\PSoC5/int_1us.c **** 
  19:Generated_Source\PSoC5/int_1us.c **** #include <cydevice_trm.h>
  20:Generated_Source\PSoC5/int_1us.c **** #include <CyLib.h>
  21:Generated_Source\PSoC5/int_1us.c **** #include <int_1us.h>
  22:Generated_Source\PSoC5/int_1us.c **** #include "cyapicallbacks.h"
  23:Generated_Source\PSoC5/int_1us.c **** 
  24:Generated_Source\PSoC5/int_1us.c **** #if !defined(int_1us__REMOVED) /* Check for removal by optimization */
  25:Generated_Source\PSoC5/int_1us.c **** 
  26:Generated_Source\PSoC5/int_1us.c **** /*******************************************************************************
  27:Generated_Source\PSoC5/int_1us.c **** *  Place your includes, defines and code here 
  28:Generated_Source\PSoC5/int_1us.c **** ********************************************************************************/
  29:Generated_Source\PSoC5/int_1us.c **** /* `#START int_1us_intc` */
  30:Generated_Source\PSoC5/int_1us.c **** 
ARM GAS  C:\Users\TYROLY~1\AppData\Local\Temp\ccqtcK3d.s 			page 2


  31:Generated_Source\PSoC5/int_1us.c **** /* `#END` */
  32:Generated_Source\PSoC5/int_1us.c **** 
  33:Generated_Source\PSoC5/int_1us.c **** #ifndef CYINT_IRQ_BASE
  34:Generated_Source\PSoC5/int_1us.c **** #define CYINT_IRQ_BASE      16
  35:Generated_Source\PSoC5/int_1us.c **** #endif /* CYINT_IRQ_BASE */
  36:Generated_Source\PSoC5/int_1us.c **** #ifndef CYINT_VECT_TABLE
  37:Generated_Source\PSoC5/int_1us.c **** #define CYINT_VECT_TABLE    ((cyisraddress **) CYREG_NVIC_VECT_OFFSET)
  38:Generated_Source\PSoC5/int_1us.c **** #endif /* CYINT_VECT_TABLE */
  39:Generated_Source\PSoC5/int_1us.c **** 
  40:Generated_Source\PSoC5/int_1us.c **** /* Declared in startup, used to set unused interrupts to. */
  41:Generated_Source\PSoC5/int_1us.c **** CY_ISR_PROTO(IntDefaultHandler);
  42:Generated_Source\PSoC5/int_1us.c **** 
  43:Generated_Source\PSoC5/int_1us.c **** 
  44:Generated_Source\PSoC5/int_1us.c **** /*******************************************************************************
  45:Generated_Source\PSoC5/int_1us.c **** * Function Name: int_1us_Start
  46:Generated_Source\PSoC5/int_1us.c **** ********************************************************************************
  47:Generated_Source\PSoC5/int_1us.c **** *
  48:Generated_Source\PSoC5/int_1us.c **** * Summary:
  49:Generated_Source\PSoC5/int_1us.c **** *  Set up the interrupt and enable it. This function disables the interrupt, 
  50:Generated_Source\PSoC5/int_1us.c **** *  sets the default interrupt vector, sets the priority from the value in the
  51:Generated_Source\PSoC5/int_1us.c **** *  Design Wide Resources Interrupt Editor, then enables the interrupt to the 
  52:Generated_Source\PSoC5/int_1us.c **** *  interrupt controller.
  53:Generated_Source\PSoC5/int_1us.c **** *
  54:Generated_Source\PSoC5/int_1us.c **** * Parameters:  
  55:Generated_Source\PSoC5/int_1us.c **** *   None
  56:Generated_Source\PSoC5/int_1us.c **** *
  57:Generated_Source\PSoC5/int_1us.c **** * Return:
  58:Generated_Source\PSoC5/int_1us.c **** *   None
  59:Generated_Source\PSoC5/int_1us.c **** *
  60:Generated_Source\PSoC5/int_1us.c **** *******************************************************************************/
  61:Generated_Source\PSoC5/int_1us.c **** void int_1us_Start(void)
  62:Generated_Source\PSoC5/int_1us.c **** {
  63:Generated_Source\PSoC5/int_1us.c ****     /* For all we know the interrupt is active. */
  64:Generated_Source\PSoC5/int_1us.c ****     int_1us_Disable();
  65:Generated_Source\PSoC5/int_1us.c **** 
  66:Generated_Source\PSoC5/int_1us.c ****     /* Set the ISR to point to the int_1us Interrupt. */
  67:Generated_Source\PSoC5/int_1us.c ****     int_1us_SetVector(&int_1us_Interrupt);
  68:Generated_Source\PSoC5/int_1us.c **** 
  69:Generated_Source\PSoC5/int_1us.c ****     /* Set the priority. */
  70:Generated_Source\PSoC5/int_1us.c ****     int_1us_SetPriority((uint8)int_1us_INTC_PRIOR_NUMBER);
  71:Generated_Source\PSoC5/int_1us.c **** 
  72:Generated_Source\PSoC5/int_1us.c ****     /* Enable it. */
  73:Generated_Source\PSoC5/int_1us.c ****     int_1us_Enable();
  74:Generated_Source\PSoC5/int_1us.c **** }
  75:Generated_Source\PSoC5/int_1us.c **** 
  76:Generated_Source\PSoC5/int_1us.c **** 
  77:Generated_Source\PSoC5/int_1us.c **** /*******************************************************************************
  78:Generated_Source\PSoC5/int_1us.c **** * Function Name: int_1us_StartEx
  79:Generated_Source\PSoC5/int_1us.c **** ********************************************************************************
  80:Generated_Source\PSoC5/int_1us.c **** *
  81:Generated_Source\PSoC5/int_1us.c **** * Summary:
  82:Generated_Source\PSoC5/int_1us.c **** *  Sets up the interrupt and enables it. This function disables the interrupt,
  83:Generated_Source\PSoC5/int_1us.c **** *  sets the interrupt vector based on the address passed in, sets the priority 
  84:Generated_Source\PSoC5/int_1us.c **** *  from the value in the Design Wide Resources Interrupt Editor, then enables 
  85:Generated_Source\PSoC5/int_1us.c **** *  the interrupt to the interrupt controller.
  86:Generated_Source\PSoC5/int_1us.c **** *  
  87:Generated_Source\PSoC5/int_1us.c **** *  When defining ISR functions, the CY_ISR and CY_ISR_PROTO macros should be 
ARM GAS  C:\Users\TYROLY~1\AppData\Local\Temp\ccqtcK3d.s 			page 3


  88:Generated_Source\PSoC5/int_1us.c **** *  used to provide consistent definition across compilers:
  89:Generated_Source\PSoC5/int_1us.c **** *  
  90:Generated_Source\PSoC5/int_1us.c **** *  Function definition example:
  91:Generated_Source\PSoC5/int_1us.c **** *   CY_ISR(MyISR)
  92:Generated_Source\PSoC5/int_1us.c **** *   {
  93:Generated_Source\PSoC5/int_1us.c **** *   }
  94:Generated_Source\PSoC5/int_1us.c **** *   Function prototype example:
  95:Generated_Source\PSoC5/int_1us.c **** *   CY_ISR_PROTO(MyISR);
  96:Generated_Source\PSoC5/int_1us.c **** *
  97:Generated_Source\PSoC5/int_1us.c **** * Parameters:  
  98:Generated_Source\PSoC5/int_1us.c **** *   address: Address of the ISR to set in the interrupt vector table.
  99:Generated_Source\PSoC5/int_1us.c **** *
 100:Generated_Source\PSoC5/int_1us.c **** * Return:
 101:Generated_Source\PSoC5/int_1us.c **** *   None
 102:Generated_Source\PSoC5/int_1us.c **** *
 103:Generated_Source\PSoC5/int_1us.c **** *******************************************************************************/
 104:Generated_Source\PSoC5/int_1us.c **** void int_1us_StartEx(cyisraddress address)
 105:Generated_Source\PSoC5/int_1us.c **** {
 106:Generated_Source\PSoC5/int_1us.c ****     /* For all we know the interrupt is active. */
 107:Generated_Source\PSoC5/int_1us.c ****     int_1us_Disable();
 108:Generated_Source\PSoC5/int_1us.c **** 
 109:Generated_Source\PSoC5/int_1us.c ****     /* Set the ISR to point to the int_1us Interrupt. */
 110:Generated_Source\PSoC5/int_1us.c ****     int_1us_SetVector(address);
 111:Generated_Source\PSoC5/int_1us.c **** 
 112:Generated_Source\PSoC5/int_1us.c ****     /* Set the priority. */
 113:Generated_Source\PSoC5/int_1us.c ****     int_1us_SetPriority((uint8)int_1us_INTC_PRIOR_NUMBER);
 114:Generated_Source\PSoC5/int_1us.c **** 
 115:Generated_Source\PSoC5/int_1us.c ****     /* Enable it. */
 116:Generated_Source\PSoC5/int_1us.c ****     int_1us_Enable();
 117:Generated_Source\PSoC5/int_1us.c **** }
 118:Generated_Source\PSoC5/int_1us.c **** 
 119:Generated_Source\PSoC5/int_1us.c **** 
 120:Generated_Source\PSoC5/int_1us.c **** /*******************************************************************************
 121:Generated_Source\PSoC5/int_1us.c **** * Function Name: int_1us_Stop
 122:Generated_Source\PSoC5/int_1us.c **** ********************************************************************************
 123:Generated_Source\PSoC5/int_1us.c **** *
 124:Generated_Source\PSoC5/int_1us.c **** * Summary:
 125:Generated_Source\PSoC5/int_1us.c **** *   Disables and removes the interrupt.
 126:Generated_Source\PSoC5/int_1us.c **** *
 127:Generated_Source\PSoC5/int_1us.c **** * Parameters:  
 128:Generated_Source\PSoC5/int_1us.c **** *   None
 129:Generated_Source\PSoC5/int_1us.c **** *
 130:Generated_Source\PSoC5/int_1us.c **** * Return:
 131:Generated_Source\PSoC5/int_1us.c **** *   None
 132:Generated_Source\PSoC5/int_1us.c **** *
 133:Generated_Source\PSoC5/int_1us.c **** *******************************************************************************/
 134:Generated_Source\PSoC5/int_1us.c **** void int_1us_Stop(void)
 135:Generated_Source\PSoC5/int_1us.c **** {
 136:Generated_Source\PSoC5/int_1us.c ****     /* Disable this interrupt. */
 137:Generated_Source\PSoC5/int_1us.c ****     int_1us_Disable();
 138:Generated_Source\PSoC5/int_1us.c **** 
 139:Generated_Source\PSoC5/int_1us.c ****     /* Set the ISR to point to the passive one. */
 140:Generated_Source\PSoC5/int_1us.c ****     int_1us_SetVector(&IntDefaultHandler);
 141:Generated_Source\PSoC5/int_1us.c **** }
 142:Generated_Source\PSoC5/int_1us.c **** 
 143:Generated_Source\PSoC5/int_1us.c **** 
 144:Generated_Source\PSoC5/int_1us.c **** /*******************************************************************************
ARM GAS  C:\Users\TYROLY~1\AppData\Local\Temp\ccqtcK3d.s 			page 4


 145:Generated_Source\PSoC5/int_1us.c **** * Function Name: int_1us_Interrupt
 146:Generated_Source\PSoC5/int_1us.c **** ********************************************************************************
 147:Generated_Source\PSoC5/int_1us.c **** *
 148:Generated_Source\PSoC5/int_1us.c **** * Summary:
 149:Generated_Source\PSoC5/int_1us.c **** *   The default Interrupt Service Routine for int_1us.
 150:Generated_Source\PSoC5/int_1us.c **** *
 151:Generated_Source\PSoC5/int_1us.c **** *   Add custom code between the coments to keep the next version of this file
 152:Generated_Source\PSoC5/int_1us.c **** *   from over writting your code.
 153:Generated_Source\PSoC5/int_1us.c **** *
 154:Generated_Source\PSoC5/int_1us.c **** * Parameters:  
 155:Generated_Source\PSoC5/int_1us.c **** *
 156:Generated_Source\PSoC5/int_1us.c **** * Return:
 157:Generated_Source\PSoC5/int_1us.c **** *   None
 158:Generated_Source\PSoC5/int_1us.c **** *
 159:Generated_Source\PSoC5/int_1us.c **** *******************************************************************************/
 160:Generated_Source\PSoC5/int_1us.c **** CY_ISR(int_1us_Interrupt)
 161:Generated_Source\PSoC5/int_1us.c **** {
  28              		.loc 1 161 0
  29              		.cfi_startproc
  30              		@ args = 0, pretend = 0, frame = 0
  31              		@ frame_needed = 0, uses_anonymous_args = 0
  32              		@ link register save eliminated.
 162:Generated_Source\PSoC5/int_1us.c ****     #ifdef int_1us_INTERRUPT_INTERRUPT_CALLBACK
 163:Generated_Source\PSoC5/int_1us.c ****         int_1us_Interrupt_InterruptCallback();
 164:Generated_Source\PSoC5/int_1us.c ****     #endif /* int_1us_INTERRUPT_INTERRUPT_CALLBACK */ 
 165:Generated_Source\PSoC5/int_1us.c **** 
 166:Generated_Source\PSoC5/int_1us.c ****     /*  Place your Interrupt code here. */
 167:Generated_Source\PSoC5/int_1us.c ****     /* `#START int_1us_Interrupt` */
 168:Generated_Source\PSoC5/int_1us.c ****     #include "hcsr04.h"
 169:Generated_Source\PSoC5/int_1us.c ****     timer_us_hcsr04++;
  33              		.loc 1 169 0
  34 0000 024A     		ldr	r2, .L2
  35 0002 1368     		ldr	r3, [r2]
  36 0004 0133     		adds	r3, r3, #1
  37 0006 1360     		str	r3, [r2]
  38 0008 7047     		bx	lr
  39              	.L3:
  40 000a 00BF     		.align	2
  41              	.L2:
  42 000c 00000000 		.word	timer_us_hcsr04
  43              		.cfi_endproc
  44              	.LFE3:
  45              		.size	int_1us_Interrupt, .-int_1us_Interrupt
  46              		.section	.text.int_1us_SetVector,"ax",%progbits
  47              		.align	2
  48              		.global	int_1us_SetVector
  49              		.thumb
  50              		.thumb_func
  51              		.type	int_1us_SetVector, %function
  52              	int_1us_SetVector:
  53              	.LFB4:
 170:Generated_Source\PSoC5/int_1us.c **** 
 171:Generated_Source\PSoC5/int_1us.c ****     /* `#END` */
 172:Generated_Source\PSoC5/int_1us.c **** }
 173:Generated_Source\PSoC5/int_1us.c **** 
 174:Generated_Source\PSoC5/int_1us.c **** 
 175:Generated_Source\PSoC5/int_1us.c **** /*******************************************************************************
ARM GAS  C:\Users\TYROLY~1\AppData\Local\Temp\ccqtcK3d.s 			page 5


 176:Generated_Source\PSoC5/int_1us.c **** * Function Name: int_1us_SetVector
 177:Generated_Source\PSoC5/int_1us.c **** ********************************************************************************
 178:Generated_Source\PSoC5/int_1us.c **** *
 179:Generated_Source\PSoC5/int_1us.c **** * Summary:
 180:Generated_Source\PSoC5/int_1us.c **** *   Change the ISR vector for the Interrupt. Note calling int_1us_Start
 181:Generated_Source\PSoC5/int_1us.c **** *   will override any effect this method would have had. To set the vector 
 182:Generated_Source\PSoC5/int_1us.c **** *   before the component has been started use int_1us_StartEx instead.
 183:Generated_Source\PSoC5/int_1us.c **** * 
 184:Generated_Source\PSoC5/int_1us.c **** *   When defining ISR functions, the CY_ISR and CY_ISR_PROTO macros should be 
 185:Generated_Source\PSoC5/int_1us.c **** *   used to provide consistent definition across compilers:
 186:Generated_Source\PSoC5/int_1us.c **** *
 187:Generated_Source\PSoC5/int_1us.c **** *   Function definition example:
 188:Generated_Source\PSoC5/int_1us.c **** *   CY_ISR(MyISR)
 189:Generated_Source\PSoC5/int_1us.c **** *   {
 190:Generated_Source\PSoC5/int_1us.c **** *   }
 191:Generated_Source\PSoC5/int_1us.c **** *
 192:Generated_Source\PSoC5/int_1us.c **** *   Function prototype example:
 193:Generated_Source\PSoC5/int_1us.c **** *     CY_ISR_PROTO(MyISR);
 194:Generated_Source\PSoC5/int_1us.c **** *
 195:Generated_Source\PSoC5/int_1us.c **** * Parameters:
 196:Generated_Source\PSoC5/int_1us.c **** *   address: Address of the ISR to set in the interrupt vector table.
 197:Generated_Source\PSoC5/int_1us.c **** *
 198:Generated_Source\PSoC5/int_1us.c **** * Return:
 199:Generated_Source\PSoC5/int_1us.c **** *   None
 200:Generated_Source\PSoC5/int_1us.c **** *
 201:Generated_Source\PSoC5/int_1us.c **** *******************************************************************************/
 202:Generated_Source\PSoC5/int_1us.c **** void int_1us_SetVector(cyisraddress address)
 203:Generated_Source\PSoC5/int_1us.c **** {
  54              		.loc 1 203 0
  55              		.cfi_startproc
  56              		@ args = 0, pretend = 0, frame = 0
  57              		@ frame_needed = 0, uses_anonymous_args = 0
  58              		@ link register save eliminated.
  59              	.LVL0:
 204:Generated_Source\PSoC5/int_1us.c ****     cyisraddress * ramVectorTable;
 205:Generated_Source\PSoC5/int_1us.c **** 
 206:Generated_Source\PSoC5/int_1us.c ****     ramVectorTable = (cyisraddress *) *CYINT_VECT_TABLE;
  60              		.loc 1 206 0
  61 0000 014B     		ldr	r3, .L5
  62 0002 1B68     		ldr	r3, [r3]
  63              	.LVL1:
 207:Generated_Source\PSoC5/int_1us.c **** 
 208:Generated_Source\PSoC5/int_1us.c ****     ramVectorTable[CYINT_IRQ_BASE + (uint32)int_1us__INTC_NUMBER] = address;
  64              		.loc 1 208 0
  65 0004 1864     		str	r0, [r3, #64]
  66 0006 7047     		bx	lr
  67              	.L6:
  68              		.align	2
  69              	.L5:
  70 0008 08ED00E0 		.word	-536810232
  71              		.cfi_endproc
  72              	.LFE4:
  73              		.size	int_1us_SetVector, .-int_1us_SetVector
  74              		.section	.text.int_1us_GetVector,"ax",%progbits
  75              		.align	2
  76              		.global	int_1us_GetVector
  77              		.thumb
ARM GAS  C:\Users\TYROLY~1\AppData\Local\Temp\ccqtcK3d.s 			page 6


  78              		.thumb_func
  79              		.type	int_1us_GetVector, %function
  80              	int_1us_GetVector:
  81              	.LFB5:
 209:Generated_Source\PSoC5/int_1us.c **** }
 210:Generated_Source\PSoC5/int_1us.c **** 
 211:Generated_Source\PSoC5/int_1us.c **** 
 212:Generated_Source\PSoC5/int_1us.c **** /*******************************************************************************
 213:Generated_Source\PSoC5/int_1us.c **** * Function Name: int_1us_GetVector
 214:Generated_Source\PSoC5/int_1us.c **** ********************************************************************************
 215:Generated_Source\PSoC5/int_1us.c **** *
 216:Generated_Source\PSoC5/int_1us.c **** * Summary:
 217:Generated_Source\PSoC5/int_1us.c **** *   Gets the "address" of the current ISR vector for the Interrupt.
 218:Generated_Source\PSoC5/int_1us.c **** *
 219:Generated_Source\PSoC5/int_1us.c **** * Parameters:
 220:Generated_Source\PSoC5/int_1us.c **** *   None
 221:Generated_Source\PSoC5/int_1us.c **** *
 222:Generated_Source\PSoC5/int_1us.c **** * Return:
 223:Generated_Source\PSoC5/int_1us.c **** *   Address of the ISR in the interrupt vector table.
 224:Generated_Source\PSoC5/int_1us.c **** *
 225:Generated_Source\PSoC5/int_1us.c **** *******************************************************************************/
 226:Generated_Source\PSoC5/int_1us.c **** cyisraddress int_1us_GetVector(void)
 227:Generated_Source\PSoC5/int_1us.c **** {
  82              		.loc 1 227 0
  83              		.cfi_startproc
  84              		@ args = 0, pretend = 0, frame = 0
  85              		@ frame_needed = 0, uses_anonymous_args = 0
  86              		@ link register save eliminated.
 228:Generated_Source\PSoC5/int_1us.c ****     cyisraddress * ramVectorTable;
 229:Generated_Source\PSoC5/int_1us.c **** 
 230:Generated_Source\PSoC5/int_1us.c ****     ramVectorTable = (cyisraddress *) *CYINT_VECT_TABLE;
  87              		.loc 1 230 0
  88 0000 014B     		ldr	r3, .L8
  89 0002 1B68     		ldr	r3, [r3]
  90              	.LVL2:
 231:Generated_Source\PSoC5/int_1us.c **** 
 232:Generated_Source\PSoC5/int_1us.c ****     return ramVectorTable[CYINT_IRQ_BASE + (uint32)int_1us__INTC_NUMBER];
 233:Generated_Source\PSoC5/int_1us.c **** }
  91              		.loc 1 233 0
  92 0004 186C     		ldr	r0, [r3, #64]
  93 0006 7047     		bx	lr
  94              	.L9:
  95              		.align	2
  96              	.L8:
  97 0008 08ED00E0 		.word	-536810232
  98              		.cfi_endproc
  99              	.LFE5:
 100              		.size	int_1us_GetVector, .-int_1us_GetVector
 101              		.section	.text.int_1us_SetPriority,"ax",%progbits
 102              		.align	2
 103              		.global	int_1us_SetPriority
 104              		.thumb
 105              		.thumb_func
 106              		.type	int_1us_SetPriority, %function
 107              	int_1us_SetPriority:
 108              	.LFB6:
 234:Generated_Source\PSoC5/int_1us.c **** 
ARM GAS  C:\Users\TYROLY~1\AppData\Local\Temp\ccqtcK3d.s 			page 7


 235:Generated_Source\PSoC5/int_1us.c **** 
 236:Generated_Source\PSoC5/int_1us.c **** /*******************************************************************************
 237:Generated_Source\PSoC5/int_1us.c **** * Function Name: int_1us_SetPriority
 238:Generated_Source\PSoC5/int_1us.c **** ********************************************************************************
 239:Generated_Source\PSoC5/int_1us.c **** *
 240:Generated_Source\PSoC5/int_1us.c **** * Summary:
 241:Generated_Source\PSoC5/int_1us.c **** *   Sets the Priority of the Interrupt. 
 242:Generated_Source\PSoC5/int_1us.c **** *
 243:Generated_Source\PSoC5/int_1us.c **** *   Note calling int_1us_Start or int_1us_StartEx will 
 244:Generated_Source\PSoC5/int_1us.c **** *   override any effect this API would have had. This API should only be called
 245:Generated_Source\PSoC5/int_1us.c **** *   after int_1us_Start or int_1us_StartEx has been called. 
 246:Generated_Source\PSoC5/int_1us.c **** *   To set the initial priority for the component, use the Design-Wide Resources
 247:Generated_Source\PSoC5/int_1us.c **** *   Interrupt Editor.
 248:Generated_Source\PSoC5/int_1us.c **** *
 249:Generated_Source\PSoC5/int_1us.c **** *   Note This API has no effect on Non-maskable interrupt NMI).
 250:Generated_Source\PSoC5/int_1us.c **** *
 251:Generated_Source\PSoC5/int_1us.c **** * Parameters:
 252:Generated_Source\PSoC5/int_1us.c **** *   priority: Priority of the interrupt, 0 being the highest priority
 253:Generated_Source\PSoC5/int_1us.c **** *             PSoC 3 and PSoC 5LP: Priority is from 0 to 7.
 254:Generated_Source\PSoC5/int_1us.c **** *             PSoC 4: Priority is from 0 to 3.
 255:Generated_Source\PSoC5/int_1us.c **** *
 256:Generated_Source\PSoC5/int_1us.c **** * Return:
 257:Generated_Source\PSoC5/int_1us.c **** *   None
 258:Generated_Source\PSoC5/int_1us.c **** *
 259:Generated_Source\PSoC5/int_1us.c **** *******************************************************************************/
 260:Generated_Source\PSoC5/int_1us.c **** void int_1us_SetPriority(uint8 priority)
 261:Generated_Source\PSoC5/int_1us.c **** {
 109              		.loc 1 261 0
 110              		.cfi_startproc
 111              		@ args = 0, pretend = 0, frame = 0
 112              		@ frame_needed = 0, uses_anonymous_args = 0
 113              		@ link register save eliminated.
 114              	.LVL3:
 262:Generated_Source\PSoC5/int_1us.c ****     *int_1us_INTC_PRIOR = priority << 5;
 115              		.loc 1 262 0
 116 0000 4001     		lsls	r0, r0, #5
 117              	.LVL4:
 118 0002 C0B2     		uxtb	r0, r0
 119 0004 014B     		ldr	r3, .L11
 120 0006 1870     		strb	r0, [r3]
 121 0008 7047     		bx	lr
 122              	.L12:
 123 000a 00BF     		.align	2
 124              	.L11:
 125 000c 00E400E0 		.word	-536812544
 126              		.cfi_endproc
 127              	.LFE6:
 128              		.size	int_1us_SetPriority, .-int_1us_SetPriority
 129              		.section	.text.int_1us_GetPriority,"ax",%progbits
 130              		.align	2
 131              		.global	int_1us_GetPriority
 132              		.thumb
 133              		.thumb_func
 134              		.type	int_1us_GetPriority, %function
 135              	int_1us_GetPriority:
 136              	.LFB7:
 263:Generated_Source\PSoC5/int_1us.c **** }
ARM GAS  C:\Users\TYROLY~1\AppData\Local\Temp\ccqtcK3d.s 			page 8


 264:Generated_Source\PSoC5/int_1us.c **** 
 265:Generated_Source\PSoC5/int_1us.c **** 
 266:Generated_Source\PSoC5/int_1us.c **** /*******************************************************************************
 267:Generated_Source\PSoC5/int_1us.c **** * Function Name: int_1us_GetPriority
 268:Generated_Source\PSoC5/int_1us.c **** ********************************************************************************
 269:Generated_Source\PSoC5/int_1us.c **** *
 270:Generated_Source\PSoC5/int_1us.c **** * Summary:
 271:Generated_Source\PSoC5/int_1us.c **** *   Gets the Priority of the Interrupt.
 272:Generated_Source\PSoC5/int_1us.c **** *
 273:Generated_Source\PSoC5/int_1us.c **** * Parameters:
 274:Generated_Source\PSoC5/int_1us.c **** *   None
 275:Generated_Source\PSoC5/int_1us.c **** *
 276:Generated_Source\PSoC5/int_1us.c **** * Return:
 277:Generated_Source\PSoC5/int_1us.c **** *   Priority of the interrupt, 0 being the highest priority
 278:Generated_Source\PSoC5/int_1us.c **** *    PSoC 3 and PSoC 5LP: Priority is from 0 to 7.
 279:Generated_Source\PSoC5/int_1us.c **** *    PSoC 4: Priority is from 0 to 3.
 280:Generated_Source\PSoC5/int_1us.c **** *
 281:Generated_Source\PSoC5/int_1us.c **** *******************************************************************************/
 282:Generated_Source\PSoC5/int_1us.c **** uint8 int_1us_GetPriority(void)
 283:Generated_Source\PSoC5/int_1us.c **** {
 137              		.loc 1 283 0
 138              		.cfi_startproc
 139              		@ args = 0, pretend = 0, frame = 0
 140              		@ frame_needed = 0, uses_anonymous_args = 0
 141              		@ link register save eliminated.
 284:Generated_Source\PSoC5/int_1us.c ****     uint8 priority;
 285:Generated_Source\PSoC5/int_1us.c **** 
 286:Generated_Source\PSoC5/int_1us.c **** 
 287:Generated_Source\PSoC5/int_1us.c ****     priority = *int_1us_INTC_PRIOR >> 5;
 142              		.loc 1 287 0
 143 0000 014B     		ldr	r3, .L14
 144 0002 1878     		ldrb	r0, [r3]	@ zero_extendqisi2
 145              	.LVL5:
 288:Generated_Source\PSoC5/int_1us.c **** 
 289:Generated_Source\PSoC5/int_1us.c ****     return priority;
 290:Generated_Source\PSoC5/int_1us.c **** }
 146              		.loc 1 290 0
 147 0004 4009     		lsrs	r0, r0, #5
 148              	.LVL6:
 149 0006 7047     		bx	lr
 150              	.L15:
 151              		.align	2
 152              	.L14:
 153 0008 00E400E0 		.word	-536812544
 154              		.cfi_endproc
 155              	.LFE7:
 156              		.size	int_1us_GetPriority, .-int_1us_GetPriority
 157              		.section	.text.int_1us_Enable,"ax",%progbits
 158              		.align	2
 159              		.global	int_1us_Enable
 160              		.thumb
 161              		.thumb_func
 162              		.type	int_1us_Enable, %function
 163              	int_1us_Enable:
 164              	.LFB8:
 291:Generated_Source\PSoC5/int_1us.c **** 
 292:Generated_Source\PSoC5/int_1us.c **** 
ARM GAS  C:\Users\TYROLY~1\AppData\Local\Temp\ccqtcK3d.s 			page 9


 293:Generated_Source\PSoC5/int_1us.c **** /*******************************************************************************
 294:Generated_Source\PSoC5/int_1us.c **** * Function Name: int_1us_Enable
 295:Generated_Source\PSoC5/int_1us.c **** ********************************************************************************
 296:Generated_Source\PSoC5/int_1us.c **** *
 297:Generated_Source\PSoC5/int_1us.c **** * Summary:
 298:Generated_Source\PSoC5/int_1us.c **** *   Enables the interrupt to the interrupt controller. Do not call this function
 299:Generated_Source\PSoC5/int_1us.c **** *   unless ISR_Start() has been called or the functionality of the ISR_Start() 
 300:Generated_Source\PSoC5/int_1us.c **** *   function, which sets the vector and the priority, has been called.
 301:Generated_Source\PSoC5/int_1us.c **** *
 302:Generated_Source\PSoC5/int_1us.c **** * Parameters:
 303:Generated_Source\PSoC5/int_1us.c **** *   None
 304:Generated_Source\PSoC5/int_1us.c **** *
 305:Generated_Source\PSoC5/int_1us.c **** * Return:
 306:Generated_Source\PSoC5/int_1us.c **** *   None
 307:Generated_Source\PSoC5/int_1us.c **** *
 308:Generated_Source\PSoC5/int_1us.c **** *******************************************************************************/
 309:Generated_Source\PSoC5/int_1us.c **** void int_1us_Enable(void)
 310:Generated_Source\PSoC5/int_1us.c **** {
 165              		.loc 1 310 0
 166              		.cfi_startproc
 167              		@ args = 0, pretend = 0, frame = 0
 168              		@ frame_needed = 0, uses_anonymous_args = 0
 169              		@ link register save eliminated.
 311:Generated_Source\PSoC5/int_1us.c ****     /* Enable the general interrupt. */
 312:Generated_Source\PSoC5/int_1us.c ****     *int_1us_INTC_SET_EN = int_1us__INTC_MASK;
 170              		.loc 1 312 0
 171 0000 0122     		movs	r2, #1
 172 0002 014B     		ldr	r3, .L17
 173 0004 1A60     		str	r2, [r3]
 174 0006 7047     		bx	lr
 175              	.L18:
 176              		.align	2
 177              	.L17:
 178 0008 00E100E0 		.word	-536813312
 179              		.cfi_endproc
 180              	.LFE8:
 181              		.size	int_1us_Enable, .-int_1us_Enable
 182              		.section	.text.int_1us_GetState,"ax",%progbits
 183              		.align	2
 184              		.global	int_1us_GetState
 185              		.thumb
 186              		.thumb_func
 187              		.type	int_1us_GetState, %function
 188              	int_1us_GetState:
 189              	.LFB9:
 313:Generated_Source\PSoC5/int_1us.c **** }
 314:Generated_Source\PSoC5/int_1us.c **** 
 315:Generated_Source\PSoC5/int_1us.c **** 
 316:Generated_Source\PSoC5/int_1us.c **** /*******************************************************************************
 317:Generated_Source\PSoC5/int_1us.c **** * Function Name: int_1us_GetState
 318:Generated_Source\PSoC5/int_1us.c **** ********************************************************************************
 319:Generated_Source\PSoC5/int_1us.c **** *
 320:Generated_Source\PSoC5/int_1us.c **** * Summary:
 321:Generated_Source\PSoC5/int_1us.c **** *   Gets the state (enabled, disabled) of the Interrupt.
 322:Generated_Source\PSoC5/int_1us.c **** *
 323:Generated_Source\PSoC5/int_1us.c **** * Parameters:
 324:Generated_Source\PSoC5/int_1us.c **** *   None
ARM GAS  C:\Users\TYROLY~1\AppData\Local\Temp\ccqtcK3d.s 			page 10


 325:Generated_Source\PSoC5/int_1us.c **** *
 326:Generated_Source\PSoC5/int_1us.c **** * Return:
 327:Generated_Source\PSoC5/int_1us.c **** *   1 if enabled, 0 if disabled.
 328:Generated_Source\PSoC5/int_1us.c **** *
 329:Generated_Source\PSoC5/int_1us.c **** *******************************************************************************/
 330:Generated_Source\PSoC5/int_1us.c **** uint8 int_1us_GetState(void)
 331:Generated_Source\PSoC5/int_1us.c **** {
 190              		.loc 1 331 0
 191              		.cfi_startproc
 192              		@ args = 0, pretend = 0, frame = 0
 193              		@ frame_needed = 0, uses_anonymous_args = 0
 194              		@ link register save eliminated.
 332:Generated_Source\PSoC5/int_1us.c ****     /* Get the state of the general interrupt. */
 333:Generated_Source\PSoC5/int_1us.c ****     return ((*int_1us_INTC_SET_EN & (uint32)int_1us__INTC_MASK) != 0u) ? 1u:0u;
 195              		.loc 1 333 0
 196 0000 024B     		ldr	r3, .L20
 197 0002 1868     		ldr	r0, [r3]
 334:Generated_Source\PSoC5/int_1us.c **** }
 198              		.loc 1 334 0
 199 0004 00F00100 		and	r0, r0, #1
 200 0008 7047     		bx	lr
 201              	.L21:
 202 000a 00BF     		.align	2
 203              	.L20:
 204 000c 00E100E0 		.word	-536813312
 205              		.cfi_endproc
 206              	.LFE9:
 207              		.size	int_1us_GetState, .-int_1us_GetState
 208              		.section	.text.int_1us_Disable,"ax",%progbits
 209              		.align	2
 210              		.global	int_1us_Disable
 211              		.thumb
 212              		.thumb_func
 213              		.type	int_1us_Disable, %function
 214              	int_1us_Disable:
 215              	.LFB10:
 335:Generated_Source\PSoC5/int_1us.c **** 
 336:Generated_Source\PSoC5/int_1us.c **** 
 337:Generated_Source\PSoC5/int_1us.c **** /*******************************************************************************
 338:Generated_Source\PSoC5/int_1us.c **** * Function Name: int_1us_Disable
 339:Generated_Source\PSoC5/int_1us.c **** ********************************************************************************
 340:Generated_Source\PSoC5/int_1us.c **** *
 341:Generated_Source\PSoC5/int_1us.c **** * Summary:
 342:Generated_Source\PSoC5/int_1us.c **** *   Disables the Interrupt in the interrupt controller.
 343:Generated_Source\PSoC5/int_1us.c **** *
 344:Generated_Source\PSoC5/int_1us.c **** * Parameters:
 345:Generated_Source\PSoC5/int_1us.c **** *   None
 346:Generated_Source\PSoC5/int_1us.c **** *
 347:Generated_Source\PSoC5/int_1us.c **** * Return:
 348:Generated_Source\PSoC5/int_1us.c **** *   None
 349:Generated_Source\PSoC5/int_1us.c **** *
 350:Generated_Source\PSoC5/int_1us.c **** *******************************************************************************/
 351:Generated_Source\PSoC5/int_1us.c **** void int_1us_Disable(void)
 352:Generated_Source\PSoC5/int_1us.c **** {
 216              		.loc 1 352 0
 217              		.cfi_startproc
 218              		@ args = 0, pretend = 0, frame = 0
ARM GAS  C:\Users\TYROLY~1\AppData\Local\Temp\ccqtcK3d.s 			page 11


 219              		@ frame_needed = 0, uses_anonymous_args = 0
 220              		@ link register save eliminated.
 353:Generated_Source\PSoC5/int_1us.c ****     /* Disable the general interrupt. */
 354:Generated_Source\PSoC5/int_1us.c ****     *int_1us_INTC_CLR_EN = int_1us__INTC_MASK;
 221              		.loc 1 354 0
 222 0000 0122     		movs	r2, #1
 223 0002 014B     		ldr	r3, .L23
 224 0004 1A60     		str	r2, [r3]
 225 0006 7047     		bx	lr
 226              	.L24:
 227              		.align	2
 228              	.L23:
 229 0008 80E100E0 		.word	-536813184
 230              		.cfi_endproc
 231              	.LFE10:
 232              		.size	int_1us_Disable, .-int_1us_Disable
 233              		.section	.text.int_1us_Start,"ax",%progbits
 234              		.align	2
 235              		.global	int_1us_Start
 236              		.thumb
 237              		.thumb_func
 238              		.type	int_1us_Start, %function
 239              	int_1us_Start:
 240              	.LFB0:
  62:Generated_Source\PSoC5/int_1us.c ****     /* For all we know the interrupt is active. */
 241              		.loc 1 62 0
 242              		.cfi_startproc
 243              		@ args = 0, pretend = 0, frame = 0
 244              		@ frame_needed = 0, uses_anonymous_args = 0
 245 0000 08B5     		push	{r3, lr}
 246              		.cfi_def_cfa_offset 8
 247              		.cfi_offset 3, -8
 248              		.cfi_offset 14, -4
  64:Generated_Source\PSoC5/int_1us.c **** 
 249              		.loc 1 64 0
 250 0002 FFF7FEFF 		bl	int_1us_Disable
 251              	.LVL7:
  67:Generated_Source\PSoC5/int_1us.c **** 
 252              		.loc 1 67 0
 253 0006 0448     		ldr	r0, .L27
 254 0008 FFF7FEFF 		bl	int_1us_SetVector
 255              	.LVL8:
  70:Generated_Source\PSoC5/int_1us.c **** 
 256              		.loc 1 70 0
 257 000c 0720     		movs	r0, #7
 258 000e FFF7FEFF 		bl	int_1us_SetPriority
 259              	.LVL9:
  73:Generated_Source\PSoC5/int_1us.c **** }
 260              		.loc 1 73 0
 261 0012 FFF7FEFF 		bl	int_1us_Enable
 262              	.LVL10:
 263 0016 08BD     		pop	{r3, pc}
 264              	.L28:
 265              		.align	2
 266              	.L27:
 267 0018 00000000 		.word	int_1us_Interrupt
 268              		.cfi_endproc
ARM GAS  C:\Users\TYROLY~1\AppData\Local\Temp\ccqtcK3d.s 			page 12


 269              	.LFE0:
 270              		.size	int_1us_Start, .-int_1us_Start
 271              		.section	.text.int_1us_StartEx,"ax",%progbits
 272              		.align	2
 273              		.global	int_1us_StartEx
 274              		.thumb
 275              		.thumb_func
 276              		.type	int_1us_StartEx, %function
 277              	int_1us_StartEx:
 278              	.LFB1:
 105:Generated_Source\PSoC5/int_1us.c ****     /* For all we know the interrupt is active. */
 279              		.loc 1 105 0
 280              		.cfi_startproc
 281              		@ args = 0, pretend = 0, frame = 0
 282              		@ frame_needed = 0, uses_anonymous_args = 0
 283              	.LVL11:
 284 0000 10B5     		push	{r4, lr}
 285              		.cfi_def_cfa_offset 8
 286              		.cfi_offset 4, -8
 287              		.cfi_offset 14, -4
 288 0002 0446     		mov	r4, r0
 107:Generated_Source\PSoC5/int_1us.c **** 
 289              		.loc 1 107 0
 290 0004 FFF7FEFF 		bl	int_1us_Disable
 291              	.LVL12:
 110:Generated_Source\PSoC5/int_1us.c **** 
 292              		.loc 1 110 0
 293 0008 2046     		mov	r0, r4
 294 000a FFF7FEFF 		bl	int_1us_SetVector
 295              	.LVL13:
 113:Generated_Source\PSoC5/int_1us.c **** 
 296              		.loc 1 113 0
 297 000e 0720     		movs	r0, #7
 298 0010 FFF7FEFF 		bl	int_1us_SetPriority
 299              	.LVL14:
 116:Generated_Source\PSoC5/int_1us.c **** }
 300              		.loc 1 116 0
 301 0014 FFF7FEFF 		bl	int_1us_Enable
 302              	.LVL15:
 303 0018 10BD     		pop	{r4, pc}
 304              		.cfi_endproc
 305              	.LFE1:
 306              		.size	int_1us_StartEx, .-int_1us_StartEx
 307 001a 00BF     		.section	.text.int_1us_Stop,"ax",%progbits
 308              		.align	2
 309              		.global	int_1us_Stop
 310              		.thumb
 311              		.thumb_func
 312              		.type	int_1us_Stop, %function
 313              	int_1us_Stop:
 314              	.LFB2:
 135:Generated_Source\PSoC5/int_1us.c ****     /* Disable this interrupt. */
 315              		.loc 1 135 0
 316              		.cfi_startproc
 317              		@ args = 0, pretend = 0, frame = 0
 318              		@ frame_needed = 0, uses_anonymous_args = 0
 319 0000 08B5     		push	{r3, lr}
ARM GAS  C:\Users\TYROLY~1\AppData\Local\Temp\ccqtcK3d.s 			page 13


 320              		.cfi_def_cfa_offset 8
 321              		.cfi_offset 3, -8
 322              		.cfi_offset 14, -4
 137:Generated_Source\PSoC5/int_1us.c **** 
 323              		.loc 1 137 0
 324 0002 FFF7FEFF 		bl	int_1us_Disable
 325              	.LVL16:
 140:Generated_Source\PSoC5/int_1us.c **** }
 326              		.loc 1 140 0
 327 0006 0248     		ldr	r0, .L33
 328 0008 FFF7FEFF 		bl	int_1us_SetVector
 329              	.LVL17:
 330 000c 08BD     		pop	{r3, pc}
 331              	.L34:
 332 000e 00BF     		.align	2
 333              	.L33:
 334 0010 00000000 		.word	IntDefaultHandler
 335              		.cfi_endproc
 336              	.LFE2:
 337              		.size	int_1us_Stop, .-int_1us_Stop
 338              		.section	.text.int_1us_SetPending,"ax",%progbits
 339              		.align	2
 340              		.global	int_1us_SetPending
 341              		.thumb
 342              		.thumb_func
 343              		.type	int_1us_SetPending, %function
 344              	int_1us_SetPending:
 345              	.LFB11:
 355:Generated_Source\PSoC5/int_1us.c **** }
 356:Generated_Source\PSoC5/int_1us.c **** 
 357:Generated_Source\PSoC5/int_1us.c **** 
 358:Generated_Source\PSoC5/int_1us.c **** /*******************************************************************************
 359:Generated_Source\PSoC5/int_1us.c **** * Function Name: int_1us_SetPending
 360:Generated_Source\PSoC5/int_1us.c **** ********************************************************************************
 361:Generated_Source\PSoC5/int_1us.c **** *
 362:Generated_Source\PSoC5/int_1us.c **** * Summary:
 363:Generated_Source\PSoC5/int_1us.c **** *   Causes the Interrupt to enter the pending state, a software method of
 364:Generated_Source\PSoC5/int_1us.c **** *   generating the interrupt.
 365:Generated_Source\PSoC5/int_1us.c **** *
 366:Generated_Source\PSoC5/int_1us.c **** * Parameters:
 367:Generated_Source\PSoC5/int_1us.c **** *   None
 368:Generated_Source\PSoC5/int_1us.c **** *
 369:Generated_Source\PSoC5/int_1us.c **** * Return:
 370:Generated_Source\PSoC5/int_1us.c **** *   None
 371:Generated_Source\PSoC5/int_1us.c **** *
 372:Generated_Source\PSoC5/int_1us.c **** * Side Effects:
 373:Generated_Source\PSoC5/int_1us.c **** *   If interrupts are enabled and the interrupt is set up properly, the ISR is
 374:Generated_Source\PSoC5/int_1us.c **** *   entered (depending on the priority of this interrupt and other pending 
 375:Generated_Source\PSoC5/int_1us.c **** *   interrupts).
 376:Generated_Source\PSoC5/int_1us.c **** *
 377:Generated_Source\PSoC5/int_1us.c **** *******************************************************************************/
 378:Generated_Source\PSoC5/int_1us.c **** void int_1us_SetPending(void)
 379:Generated_Source\PSoC5/int_1us.c **** {
 346              		.loc 1 379 0
 347              		.cfi_startproc
 348              		@ args = 0, pretend = 0, frame = 0
 349              		@ frame_needed = 0, uses_anonymous_args = 0
ARM GAS  C:\Users\TYROLY~1\AppData\Local\Temp\ccqtcK3d.s 			page 14


 350              		@ link register save eliminated.
 380:Generated_Source\PSoC5/int_1us.c ****     *int_1us_INTC_SET_PD = int_1us__INTC_MASK;
 351              		.loc 1 380 0
 352 0000 0122     		movs	r2, #1
 353 0002 014B     		ldr	r3, .L36
 354 0004 1A60     		str	r2, [r3]
 355 0006 7047     		bx	lr
 356              	.L37:
 357              		.align	2
 358              	.L36:
 359 0008 00E200E0 		.word	-536813056
 360              		.cfi_endproc
 361              	.LFE11:
 362              		.size	int_1us_SetPending, .-int_1us_SetPending
 363              		.section	.text.int_1us_ClearPending,"ax",%progbits
 364              		.align	2
 365              		.global	int_1us_ClearPending
 366              		.thumb
 367              		.thumb_func
 368              		.type	int_1us_ClearPending, %function
 369              	int_1us_ClearPending:
 370              	.LFB12:
 381:Generated_Source\PSoC5/int_1us.c **** }
 382:Generated_Source\PSoC5/int_1us.c **** 
 383:Generated_Source\PSoC5/int_1us.c **** 
 384:Generated_Source\PSoC5/int_1us.c **** /*******************************************************************************
 385:Generated_Source\PSoC5/int_1us.c **** * Function Name: int_1us_ClearPending
 386:Generated_Source\PSoC5/int_1us.c **** ********************************************************************************
 387:Generated_Source\PSoC5/int_1us.c **** *
 388:Generated_Source\PSoC5/int_1us.c **** * Summary:
 389:Generated_Source\PSoC5/int_1us.c **** *   Clears a pending interrupt in the interrupt controller.
 390:Generated_Source\PSoC5/int_1us.c **** *
 391:Generated_Source\PSoC5/int_1us.c **** *   Note Some interrupt sources are clear-on-read and require the block 
 392:Generated_Source\PSoC5/int_1us.c **** *   interrupt/status register to be read/cleared with the appropriate block API 
 393:Generated_Source\PSoC5/int_1us.c **** *   (GPIO, UART, and so on). Otherwise the ISR will continue to remain in 
 394:Generated_Source\PSoC5/int_1us.c **** *   pending state even though the interrupt itself is cleared using this API.
 395:Generated_Source\PSoC5/int_1us.c **** *
 396:Generated_Source\PSoC5/int_1us.c **** * Parameters:
 397:Generated_Source\PSoC5/int_1us.c **** *   None
 398:Generated_Source\PSoC5/int_1us.c **** *
 399:Generated_Source\PSoC5/int_1us.c **** * Return:
 400:Generated_Source\PSoC5/int_1us.c **** *   None
 401:Generated_Source\PSoC5/int_1us.c **** *
 402:Generated_Source\PSoC5/int_1us.c **** *******************************************************************************/
 403:Generated_Source\PSoC5/int_1us.c **** void int_1us_ClearPending(void)
 404:Generated_Source\PSoC5/int_1us.c **** {
 371              		.loc 1 404 0
 372              		.cfi_startproc
 373              		@ args = 0, pretend = 0, frame = 0
 374              		@ frame_needed = 0, uses_anonymous_args = 0
 375              		@ link register save eliminated.
 405:Generated_Source\PSoC5/int_1us.c ****     *int_1us_INTC_CLR_PD = int_1us__INTC_MASK;
 376              		.loc 1 405 0
 377 0000 0122     		movs	r2, #1
 378 0002 014B     		ldr	r3, .L39
 379 0004 1A60     		str	r2, [r3]
 380 0006 7047     		bx	lr
ARM GAS  C:\Users\TYROLY~1\AppData\Local\Temp\ccqtcK3d.s 			page 15


 381              	.L40:
 382              		.align	2
 383              	.L39:
 384 0008 80E200E0 		.word	-536812928
 385              		.cfi_endproc
 386              	.LFE12:
 387              		.size	int_1us_ClearPending, .-int_1us_ClearPending
 388              		.text
 389              	.Letext0:
 390              		.file 2 "c:\\program files (x86)\\cypress\\psoc creator\\4.2\\psoc creator\\import\\gnu\\arm\\5.4.
 391              		.file 3 "c:\\program files (x86)\\cypress\\psoc creator\\4.2\\psoc creator\\import\\gnu\\arm\\5.4.
 392              		.file 4 "Generated_Source\\PSoC5/cytypes.h"
 393              		.file 5 "./hcsr04.h"